	.section	__TEXT,__text,regular,pure_instructions
	.build_version macos, 11, 0	sdk_version 12, 1
	.globl	__Z4siteiiii                    ## -- Begin function _Z4siteiiii
	.p2align	4, 0x90
__Z4siteiiii:                           ## @_Z4siteiiii
	.cfi_startproc
## %bb.0:
	pushq	%rbp
	.cfi_def_cfa_offset 16
	.cfi_offset %rbp, -16
	movq	%rsp, %rbp
	.cfi_def_cfa_register %rbp
                                        ## kill: def $esi killed $esi def $rsi
                                        ## kill: def $edi killed $edi def $rdi
	imull	%edx, %esi
	leal	(%rsi,%rdi), %eax
	popq	%rbp
	retq
	.cfi_endproc
                                        ## -- End function
	.globl	__Z10site_to_xyiii              ## -- Begin function _Z10site_to_xyiii
	.p2align	4, 0x90
__Z10site_to_xyiii:                     ## @_Z10site_to_xyiii
	.cfi_startproc
## %bb.0:
	pushq	%rbp
	.cfi_def_cfa_offset 16
	.cfi_offset %rbp, -16
	movq	%rsp, %rbp
	.cfi_def_cfa_register %rbp
	pushq	%r15
	pushq	%r14
	pushq	%rbx
	pushq	%rax
	.cfi_offset %rbx, -40
	.cfi_offset %r14, -32
	.cfi_offset %r15, -24
	movl	%edi, %eax
	cltd
	idivl	%esi
	movl	%edx, %ebx
	movl	%eax, %r14d
	leaq	-32(%rbp), %r15
	movq	%r15, %rdi
	xorl	%esi, %esi
	callq	__ZNSt3__15arrayIiLm2EEixEm
	movl	%ebx, (%rax)
	movl	$1, %esi
	movq	%r15, %rdi
	callq	__ZNSt3__15arrayIiLm2EEixEm
	movl	%r14d, (%rax)
	movq	-32(%rbp), %rax
	addq	$8, %rsp
	popq	%rbx
	popq	%r14
	popq	%r15
	popq	%rbp
	retq
	.cfi_endproc
                                        ## -- End function
	.p2align	4, 0x90                         ## -- Begin function _ZNSt3__15arrayIiLm2EEixEm
__ZNSt3__15arrayIiLm2EEixEm:            ## @_ZNSt3__15arrayIiLm2EEixEm
	.cfi_startproc
## %bb.0:
	pushq	%rbp
	.cfi_def_cfa_offset 16
	.cfi_offset %rbp, -16
	movq	%rsp, %rbp
	.cfi_def_cfa_register %rbp
	leaq	(%rdi,%rsi,4), %rax
	popq	%rbp
	retq
	.cfi_endproc
                                        ## -- End function
	.globl	__Z16bond_to_operatoriiii       ## -- Begin function _Z16bond_to_operatoriiii
	.p2align	4, 0x90
__Z16bond_to_operatoriiii:              ## @_Z16bond_to_operatoriiii
	.cfi_startproc
## %bb.0:
	pushq	%rbp
	.cfi_def_cfa_offset 16
	.cfi_offset %rbp, -16
	movq	%rsp, %rbp
	.cfi_def_cfa_register %rbp
	pushq	%r14
	pushq	%rbx
	.cfi_offset %rbx, -32
	.cfi_offset %r14, -24
                                        ## kill: def $ecx killed $ecx def $rcx
	movl	$-1, %eax
	cmpl	%esi, %edi
	je	LBB3_6
## %bb.1:
	imull	%edx, %ecx
	testl	%ecx, %ecx
	jle	LBB3_6
## %bb.2:
	leal	-1(%rcx,%rcx), %r9d
	movl	$-1, %eax
	xorl	%r8d, %r8d
	.p2align	4, 0x90
LBB3_3:                                 ## =>This Loop Header: Depth=1
                                        ##     Child Loop BB3_4 Depth 2
	xorl	%edx, %edx
	.p2align	4, 0x90
LBB3_4:                                 ##   Parent Loop BB3_3 Depth=1
                                        ## =>  This Inner Loop Header: Depth=2
	movl	%eax, %r10d
	movl	%r8d, %r11d
	xorl	%edi, %r11d
	leal	1(%r9), %r14d
	movl	%esi, %ebx
	xorl	%edx, %ebx
	orl	%r11d, %ebx
	cmovel	%r14d, %eax
	cmpl	%edx, %r8d
	cmovnel	%r14d, %r9d
	cmovel	%r10d, %eax
	incl	%edx
	cmpl	%edx, %ecx
	jne	LBB3_4
## %bb.5:                               ##   in Loop: Header=BB3_3 Depth=1
	incl	%r8d
	cmpl	%ecx, %r8d
	jne	LBB3_3
LBB3_6:
	popq	%rbx
	popq	%r14
	popq	%rbp
	retq
	.cfi_endproc
                                        ## -- End function
	.globl	__Z16operator_to_bondiii        ## -- Begin function _Z16operator_to_bondiii
	.p2align	4, 0x90
__Z16operator_to_bondiii:               ## @_Z16operator_to_bondiii
	.cfi_startproc
## %bb.0:
	pushq	%rbp
	.cfi_def_cfa_offset 16
	.cfi_offset %rbp, -16
	movq	%rsp, %rbp
	.cfi_def_cfa_register %rbp
	pushq	%r15
	pushq	%r14
	pushq	%r13
	pushq	%r12
	pushq	%rbx
	pushq	%rax
	.cfi_offset %rbx, -56
	.cfi_offset %r12, -48
	.cfi_offset %r13, -40
	.cfi_offset %r14, -32
	.cfi_offset %r15, -24
                                        ## kill: def $esi killed $esi def $rsi
	movl	%edi, %r12d
	imull	%edx, %esi
	leal	(%rsi,%rsi), %r13d
	cmpl	%edi, %r13d
	jle	LBB4_1
## %bb.9:
	movl	%r12d, %ebx
	shrl	$31, %ebx
	addl	%r12d, %ebx
	sarl	%ebx
	leaq	-48(%rbp), %r14
	movq	%r14, %rdi
	xorl	%esi, %esi
	callq	__ZNSt3__15arrayIiLm2EEixEm
	movl	%ebx, (%rax)
	movl	$1, %esi
	movq	%r14, %rdi
	callq	__ZNSt3__15arrayIiLm2EEixEm
	movl	%ebx, (%rax)
	jmp	LBB4_10
LBB4_1:
	testl	%esi, %esi
	jle	LBB4_10
## %bb.2:
	decl	%r13d
	xorl	%ebx, %ebx
	jmp	LBB4_3
	.p2align	4, 0x90
LBB4_8:                                 ##   in Loop: Header=BB4_3 Depth=1
	incl	%ebx
	cmpl	%esi, %ebx
	je	LBB4_10
LBB4_3:                                 ## =>This Loop Header: Depth=1
                                        ##     Child Loop BB4_4 Depth 2
	xorl	%r15d, %r15d
	jmp	LBB4_4
	.p2align	4, 0x90
LBB4_7:                                 ##   in Loop: Header=BB4_4 Depth=2
	incl	%r15d
	cmpl	%r15d, %esi
	je	LBB4_8
LBB4_4:                                 ##   Parent Loop BB4_3 Depth=1
                                        ## =>  This Inner Loop Header: Depth=2
	cmpl	%r15d, %ebx
	je	LBB4_7
## %bb.5:                               ##   in Loop: Header=BB4_4 Depth=2
	incl	%r13d
	cmpl	%r12d, %r13d
	jne	LBB4_7
## %bb.6:                               ##   in Loop: Header=BB4_4 Depth=2
	leaq	-48(%rbp), %rdi
	movq	%rsi, %r14
	xorl	%esi, %esi
	callq	__ZNSt3__15arrayIiLm2EEixEm
	movl	%ebx, (%rax)
	movl	$1, %esi
	leaq	-48(%rbp), %rdi
	callq	__ZNSt3__15arrayIiLm2EEixEm
	movq	%r14, %rsi
	movl	%r15d, (%rax)
	jmp	LBB4_7
LBB4_10:
	movq	-48(%rbp), %rax
	addq	$8, %rsp
	popq	%rbx
	popq	%r12
	popq	%r13
	popq	%r14
	popq	%r15
	popq	%rbp
	retq
	.cfi_endproc
                                        ## -- End function
	.globl	__Z12distance_pbciiii           ## -- Begin function _Z12distance_pbciiii
	.p2align	4, 0x90
__Z12distance_pbciiii:                  ## @_Z12distance_pbciiii
	.cfi_startproc
## %bb.0:
	pushq	%rbp
	.cfi_def_cfa_offset 16
	.cfi_offset %rbp, -16
	movq	%rsp, %rbp
	.cfi_def_cfa_register %rbp
	pushq	%r15
	pushq	%r14
	pushq	%r13
	pushq	%r12
	pushq	%rbx
	subq	$24, %rsp
	.cfi_offset %rbx, -56
	.cfi_offset %r12, -48
	.cfi_offset %r13, -40
	.cfi_offset %r14, -32
	.cfi_offset %r15, -24
	movl	%ecx, %r14d
	movl	%edx, %r12d
	movl	%esi, %r15d
	movl	%edx, %esi
	callq	__Z10site_to_xyiii
	movq	%rax, -48(%rbp)
	movl	%r15d, %edi
	movl	%r12d, %esi
	callq	__Z10site_to_xyiii
	movq	%rax, -56(%rbp)
	leaq	-56(%rbp), %rbx
	movq	%rbx, %rdi
	xorl	%esi, %esi
	callq	__ZNSt3__15arrayIiLm2EEixEm
	movl	(%rax), %r13d
	leaq	-48(%rbp), %rdi
	xorl	%esi, %esi
	callq	__ZNSt3__15arrayIiLm2EEixEm
	subl	(%rax), %r13d
	movl	%r13d, %r15d
	negl	%r15d
	cmovll	%r13d, %r15d
	movl	$1, %esi
	movq	%rbx, %rdi
	callq	__ZNSt3__15arrayIiLm2EEixEm
	movl	(%rax), %ebx
	movl	$1, %esi
	leaq	-48(%rbp), %rdi
	callq	__ZNSt3__15arrayIiLm2EEixEm
	subl	(%rax), %ebx
	movl	%ebx, %eax
	negl	%eax
	cmovll	%ebx, %eax
	movl	%r12d, %ecx
	shrl	$31, %ecx
	addl	%r12d, %ecx
	sarl	%ecx
	cmpl	%ecx, %r15d
	jle	LBB5_2
## %bb.1:
	subl	%r15d, %r12d
	jmp	LBB5_3
LBB5_2:
	negl	%ecx
	cmpl	%ecx, %r15d
	movl	$0, %ecx
	cmovgl	%ecx, %r12d
	addl	%r15d, %r12d
LBB5_3:
	movl	%r14d, %ecx
	shrl	$31, %ecx
	addl	%r14d, %ecx
	sarl	%ecx
	cmpl	%ecx, %eax
	jle	LBB5_5
## %bb.4:
	subl	%eax, %r14d
	jmp	LBB5_6
LBB5_5:
	negl	%ecx
	xorl	%edx, %edx
	cmpl	%ecx, %eax
	cmovgl	%edx, %r14d
	addl	%eax, %r14d
LBB5_6:
	movl	%r12d, %edi
	movl	%r14d, %esi
	callq	__ZL5hypotIiiENSt3__19_MetaBaseIXaasr3std13is_arithmeticIT_EE5valuesr3std13is_arithmeticIT0_EE5valueEE13_EnableIfImplINS0_9__promoteIS2_S3_vEEE4typeES2_S3_
	addq	$24, %rsp
	popq	%rbx
	popq	%r12
	popq	%r13
	popq	%r14
	popq	%r15
	popq	%rbp
	retq
	.cfi_endproc
                                        ## -- End function
	.p2align	4, 0x90                         ## -- Begin function _ZL5hypotIiiENSt3__19_MetaBaseIXaasr3std13is_arithmeticIT_EE5valuesr3std13is_arithmeticIT0_EE5valueEE13_EnableIfImplINS0_9__promoteIS2_S3_vEEE4typeES2_S3_
__ZL5hypotIiiENSt3__19_MetaBaseIXaasr3std13is_arithmeticIT_EE5valuesr3std13is_arithmeticIT0_EE5valueEE13_EnableIfImplINS0_9__promoteIS2_S3_vEEE4typeES2_S3_: ## @_ZL5hypotIiiENSt3__19_MetaBaseIXaasr3std13is_arithmeticIT_EE5valuesr3std13is_arithmeticIT0_EE5valueEE13_EnableIfImplINS0_9__promoteIS2_S3_vEEE4typeES2_S3_
	.cfi_startproc
## %bb.0:
	pushq	%rbp
	.cfi_def_cfa_offset 16
	.cfi_offset %rbp, -16
	movq	%rsp, %rbp
	.cfi_def_cfa_register %rbp
	cvtsi2sd	%edi, %xmm0
	cvtsi2sd	%esi, %xmm1
	callq	_hypot
	popq	%rbp
	retq
	.cfi_endproc
                                        ## -- End function
	.globl	__Z7vec_miniiii                 ## -- Begin function _Z7vec_miniiii
	.p2align	4, 0x90
__Z7vec_miniiii:                        ## @_Z7vec_miniiii
Lfunc_begin0:
	.cfi_startproc
	.cfi_personality 155, ___gxx_personality_v0
	.cfi_lsda 16, Lexception0
## %bb.0:
	pushq	%rbp
	.cfi_def_cfa_offset 16
	.cfi_offset %rbp, -16
	movq	%rsp, %rbp
	.cfi_def_cfa_register %rbp
	pushq	%r15
	pushq	%r14
	pushq	%r13
	pushq	%r12
	pushq	%rbx
	subq	$104, %rsp
	.cfi_offset %rbx, -56
	.cfi_offset %r12, -48
	.cfi_offset %r13, -40
	.cfi_offset %r14, -32
	.cfi_offset %r15, -24
	movl	%ecx, -48(%rbp)                 ## 4-byte Spill
	movl	%edx, %r13d
	movl	%esi, %ebx
	movl	%edx, %esi
	callq	__Z10site_to_xyiii
	movq	%rax, -88(%rbp)
	movl	%ebx, %edi
	movl	%r13d, %esi
	callq	__Z10site_to_xyiii
	movq	%rax, -64(%rbp)
	xorl	%r12d, %r12d
	leaq	-64(%rbp), %rdi
	xorl	%esi, %esi
	callq	__ZNSt3__15arrayIiLm2EEixEm
	movl	(%rax), %ebx
	leaq	-88(%rbp), %r14
	movq	%r14, %rdi
	xorl	%esi, %esi
	callq	__ZNSt3__15arrayIiLm2EEixEm
	subl	(%rax), %ebx
	movl	%ebx, %r15d
	negl	%r15d
	cmovll	%ebx, %r15d
	movl	$1, %esi
	leaq	-64(%rbp), %rdi
	callq	__ZNSt3__15arrayIiLm2EEixEm
	movl	(%rax), %ebx
	movl	$1, %esi
	movq	%r14, %rdi
	callq	__ZNSt3__15arrayIiLm2EEixEm
	subl	(%rax), %ebx
	movl	%ebx, %eax
	negl	%eax
	cmovll	%ebx, %eax
	movl	%r13d, %r14d
	shrl	$31, %r14d
	addl	%r13d, %r14d
	sarl	%r14d
	cmpl	%r14d, %r15d
	jle	LBB7_2
## %bb.1:
	movl	%r13d, %r12d
	subl	%r15d, %r12d
	jmp	LBB7_3
LBB7_2:
	movl	%r14d, %ecx
	negl	%ecx
	cmpl	%ecx, %r15d
	cmovlel	%r13d, %r12d
	addl	%r15d, %r12d
LBB7_3:
	movl	-48(%rbp), %edx                 ## 4-byte Reload
	movl	%edx, %ebx
	shrl	$31, %ebx
	addl	%edx, %ebx
	sarl	%ebx
	cmpl	%ebx, %eax
	movq	%r12, -72(%rbp)                 ## 8-byte Spill
	jle	LBB7_5
## %bb.4:
	subl	%eax, %edx
	movl	%edx, -44(%rbp)                 ## 4-byte Spill
	jmp	LBB7_6
LBB7_5:
	movl	%ebx, %ecx
	negl	%ecx
	xorl	%esi, %esi
	cmpl	%ecx, %eax
	cmovlel	%edx, %esi
	addl	%eax, %esi
	movl	%esi, -44(%rbp)                 ## 4-byte Spill
LBB7_6:
	incl	%r14d
	incl	%ebx
	movslq	%r14d, %r15
	movslq	%ebx, %rsi
	movl	$0, -52(%rbp)
	leaq	-112(%rbp), %r12
	leaq	-52(%rbp), %rdx
	movq	%r12, %rdi
	callq	__ZNSt3__16vectorIiNS_9allocatorIiEEEC1EmRKi
Ltmp0:
	leaq	-136(%rbp), %rdi
	movq	%r15, %rsi
	movq	%r12, %rdx
	callq	__ZNSt3__16vectorINS0_IiNS_9allocatorIiEEEENS1_IS3_EEEC1EmRKS3_
Ltmp1:
## %bb.7:
	leaq	-112(%rbp), %rdi
	callq	__ZNSt3__16vectorIiNS_9allocatorIiEEED1Ev
	cmpl	$-1, %r13d
	jge	LBB7_8
LBB7_15:
	movslq	-72(%rbp), %rsi                 ## 4-byte Folded Reload
	leaq	-136(%rbp), %r14
	movq	%r14, %rdi
	callq	__ZNSt3__16vectorINS0_IiNS_9allocatorIiEEEENS1_IS3_EEEixEm
	movslq	-44(%rbp), %rsi                 ## 4-byte Folded Reload
	movq	%rax, %rdi
	callq	__ZNSt3__16vectorIiNS_9allocatorIiEEEixEm
	movl	(%rax), %ebx
	movq	%r14, %rdi
	callq	__ZNSt3__16vectorINS0_IiNS_9allocatorIiEEEENS1_IS3_EEED1Ev
	movl	%ebx, %eax
	addq	$104, %rsp
	popq	%rbx
	popq	%r12
	popq	%r13
	popq	%r14
	popq	%r15
	popq	%rbp
	retq
LBB7_8:
	movl	%r14d, %eax
	movq	%rax, -80(%rbp)                 ## 8-byte Spill
	movl	%ebx, %r15d
	xorl	%r12d, %r12d
	leaq	-136(%rbp), %r14
	xorl	%r13d, %r13d
	jmp	LBB7_9
	.p2align	4, 0x90
LBB7_14:                                ##   in Loop: Header=BB7_9 Depth=1
	incq	%r12
	cmpq	-80(%rbp), %r12                 ## 8-byte Folded Reload
	je	LBB7_15
LBB7_9:                                 ## =>This Loop Header: Depth=1
                                        ##     Child Loop BB7_11 Depth 2
	cmpl	$-1, -48(%rbp)                  ## 4-byte Folded Reload
	jl	LBB7_14
## %bb.10:                              ##   in Loop: Header=BB7_9 Depth=1
	xorl	%ebx, %ebx
	jmp	LBB7_11
	.p2align	4, 0x90
LBB7_13:                                ##   in Loop: Header=BB7_11 Depth=2
	incq	%rbx
	cmpq	%rbx, %r15
	je	LBB7_14
LBB7_11:                                ##   Parent Loop BB7_9 Depth=1
                                        ## =>  This Inner Loop Header: Depth=2
	cmpq	%rbx, %r12
	ja	LBB7_13
## %bb.12:                              ##   in Loop: Header=BB7_11 Depth=2
	movq	%r14, %rdi
	movq	%rbx, %rsi
	callq	__ZNSt3__16vectorINS0_IiNS_9allocatorIiEEEENS1_IS3_EEEixEm
	movq	%rax, %rdi
	movq	%r12, %rsi
	callq	__ZNSt3__16vectorIiNS_9allocatorIiEEEixEm
	movl	%r13d, (%rax)
	movq	%r14, %rdi
	movq	%r12, %rsi
	callq	__ZNSt3__16vectorINS0_IiNS_9allocatorIiEEEENS1_IS3_EEEixEm
	movq	%rax, %rdi
	movq	%rbx, %rsi
	callq	__ZNSt3__16vectorIiNS_9allocatorIiEEEixEm
	movl	%r13d, (%rax)
	incl	%r13d
	jmp	LBB7_13
LBB7_16:
Ltmp2:
	movq	%rax, %rbx
	leaq	-112(%rbp), %rdi
	callq	__ZNSt3__16vectorIiNS_9allocatorIiEEED1Ev
	movq	%rbx, %rdi
	callq	__Unwind_Resume
	ud2
Lfunc_end0:
	.cfi_endproc
	.section	__TEXT,__gcc_except_tab
	.p2align	2
GCC_except_table7:
Lexception0:
	.byte	255                             ## @LPStart Encoding = omit
	.byte	255                             ## @TType Encoding = omit
	.byte	1                               ## Call site Encoding = uleb128
	.uleb128 Lcst_end0-Lcst_begin0
Lcst_begin0:
	.uleb128 Lfunc_begin0-Lfunc_begin0      ## >> Call Site 1 <<
	.uleb128 Ltmp0-Lfunc_begin0             ##   Call between Lfunc_begin0 and Ltmp0
	.byte	0                               ##     has no landing pad
	.byte	0                               ##   On action: cleanup
	.uleb128 Ltmp0-Lfunc_begin0             ## >> Call Site 2 <<
	.uleb128 Ltmp1-Ltmp0                    ##   Call between Ltmp0 and Ltmp1
	.uleb128 Ltmp2-Lfunc_begin0             ##     jumps to Ltmp2
	.byte	0                               ##   On action: cleanup
	.uleb128 Ltmp1-Lfunc_begin0             ## >> Call Site 3 <<
	.uleb128 Lfunc_end0-Ltmp1               ##   Call between Ltmp1 and Lfunc_end0
	.byte	0                               ##     has no landing pad
	.byte	0                               ##   On action: cleanup
Lcst_end0:
	.p2align	2
                                        ## -- End function
	.section	__TEXT,__text,regular,pure_instructions
	.globl	__ZNSt3__16vectorIiNS_9allocatorIiEEEC1EmRKi ## -- Begin function _ZNSt3__16vectorIiNS_9allocatorIiEEEC1EmRKi
	.weak_def_can_be_hidden	__ZNSt3__16vectorIiNS_9allocatorIiEEEC1EmRKi
	.p2align	4, 0x90
__ZNSt3__16vectorIiNS_9allocatorIiEEEC1EmRKi: ## @_ZNSt3__16vectorIiNS_9allocatorIiEEEC1EmRKi
	.cfi_startproc
## %bb.0:
	pushq	%rbp
	.cfi_def_cfa_offset 16
	.cfi_offset %rbp, -16
	movq	%rsp, %rbp
	.cfi_def_cfa_register %rbp
	callq	__ZNSt3__16vectorIiNS_9allocatorIiEEEC2EmRKi
	popq	%rbp
	retq
	.cfi_endproc
                                        ## -- End function
	.globl	__ZNSt3__16vectorINS0_IiNS_9allocatorIiEEEENS1_IS3_EEEC1EmRKS3_ ## -- Begin function _ZNSt3__16vectorINS0_IiNS_9allocatorIiEEEENS1_IS3_EEEC1EmRKS3_
	.weak_def_can_be_hidden	__ZNSt3__16vectorINS0_IiNS_9allocatorIiEEEENS1_IS3_EEEC1EmRKS3_
	.p2align	4, 0x90
__ZNSt3__16vectorINS0_IiNS_9allocatorIiEEEENS1_IS3_EEEC1EmRKS3_: ## @_ZNSt3__16vectorINS0_IiNS_9allocatorIiEEEENS1_IS3_EEEC1EmRKS3_
	.cfi_startproc
## %bb.0:
	pushq	%rbp
	.cfi_def_cfa_offset 16
	.cfi_offset %rbp, -16
	movq	%rsp, %rbp
	.cfi_def_cfa_register %rbp
	callq	__ZNSt3__16vectorINS0_IiNS_9allocatorIiEEEENS1_IS3_EEEC2EmRKS3_
	popq	%rbp
	retq
	.cfi_endproc
                                        ## -- End function
	.p2align	4, 0x90                         ## -- Begin function _ZNSt3__16vectorIiNS_9allocatorIiEEED1Ev
__ZNSt3__16vectorIiNS_9allocatorIiEEED1Ev: ## @_ZNSt3__16vectorIiNS_9allocatorIiEEED1Ev
	.cfi_startproc
## %bb.0:
	pushq	%rbp
	.cfi_def_cfa_offset 16
	.cfi_offset %rbp, -16
	movq	%rsp, %rbp
	.cfi_def_cfa_register %rbp
	callq	__ZNSt3__16vectorIiNS_9allocatorIiEEED2Ev
	popq	%rbp
	retq
	.cfi_endproc
                                        ## -- End function
	.p2align	4, 0x90                         ## -- Begin function _ZNSt3__16vectorINS0_IiNS_9allocatorIiEEEENS1_IS3_EEEixEm
__ZNSt3__16vectorINS0_IiNS_9allocatorIiEEEENS1_IS3_EEEixEm: ## @_ZNSt3__16vectorINS0_IiNS_9allocatorIiEEEENS1_IS3_EEEixEm
	.cfi_startproc
## %bb.0:
	pushq	%rbp
	.cfi_def_cfa_offset 16
	.cfi_offset %rbp, -16
	movq	%rsp, %rbp
	.cfi_def_cfa_register %rbp
	leaq	(%rsi,%rsi,2), %rax
	shlq	$3, %rax
	addq	(%rdi), %rax
	popq	%rbp
	retq
	.cfi_endproc
                                        ## -- End function
	.p2align	4, 0x90                         ## -- Begin function _ZNSt3__16vectorIiNS_9allocatorIiEEEixEm
__ZNSt3__16vectorIiNS_9allocatorIiEEEixEm: ## @_ZNSt3__16vectorIiNS_9allocatorIiEEEixEm
	.cfi_startproc
## %bb.0:
	pushq	%rbp
	.cfi_def_cfa_offset 16
	.cfi_offset %rbp, -16
	movq	%rsp, %rbp
	.cfi_def_cfa_register %rbp
	leaq	(,%rsi,4), %rax
	addq	(%rdi), %rax
	popq	%rbp
	retq
	.cfi_endproc
                                        ## -- End function
	.p2align	4, 0x90                         ## -- Begin function _ZNSt3__16vectorINS0_IiNS_9allocatorIiEEEENS1_IS3_EEED1Ev
__ZNSt3__16vectorINS0_IiNS_9allocatorIiEEEENS1_IS3_EEED1Ev: ## @_ZNSt3__16vectorINS0_IiNS_9allocatorIiEEEENS1_IS3_EEED1Ev
	.cfi_startproc
## %bb.0:
	pushq	%rbp
	.cfi_def_cfa_offset 16
	.cfi_offset %rbp, -16
	movq	%rsp, %rbp
	.cfi_def_cfa_register %rbp
	callq	__ZNSt3__16vectorINS0_IiNS_9allocatorIiEEEENS1_IS3_EEED2Ev
	popq	%rbp
	retq
	.cfi_endproc
                                        ## -- End function
	.globl	__Z14binary_search_RKNSt3__16vectorIdNS_9allocatorIdEEEEd ## -- Begin function _Z14binary_search_RKNSt3__16vectorIdNS_9allocatorIdEEEEd
	.p2align	4, 0x90
__Z14binary_search_RKNSt3__16vectorIdNS_9allocatorIdEEEEd: ## @_Z14binary_search_RKNSt3__16vectorIdNS_9allocatorIdEEEEd
	.cfi_startproc
## %bb.0:
	pushq	%rbp
	.cfi_def_cfa_offset 16
	.cfi_offset %rbp, -16
	movq	%rsp, %rbp
	.cfi_def_cfa_register %rbp
	pushq	%r15
	pushq	%r14
	pushq	%r12
	pushq	%rbx
	subq	$16, %rsp
	.cfi_offset %rbx, -48
	.cfi_offset %r12, -40
	.cfi_offset %r14, -32
	.cfi_offset %r15, -24
	movsd	%xmm0, -40(%rbp)                ## 8-byte Spill
	movq	%rdi, %r14
	callq	__ZNKSt3__16vectorIdNS_9allocatorIdEEE4sizeEv
	movq	%rax, %r15
	decl	%r15d
	xorl	%r12d, %r12d
	testl	%r15d, %r15d
	jg	LBB14_1
	jmp	LBB14_5
	.p2align	4, 0x90
LBB14_3:                                ##   in Loop: Header=BB14_1 Depth=1
	movl	%ebx, %r15d
	cmpl	%r15d, %r12d
	jge	LBB14_5
LBB14_1:                                ## =>This Inner Loop Header: Depth=1
	leal	(%r12,%r15), %eax
	movl	%eax, %ebx
	shrl	$31, %ebx
	addl	%eax, %ebx
	sarl	%ebx
	movslq	%ebx, %rsi
	movq	%r14, %rdi
	callq	__ZNKSt3__16vectorIdNS_9allocatorIdEEEixEm
	movsd	(%rax), %xmm0                   ## xmm0 = mem[0],zero
	ucomisd	-40(%rbp), %xmm0                ## 8-byte Folded Reload
	jae	LBB14_3
## %bb.2:                               ##   in Loop: Header=BB14_1 Depth=1
	incl	%ebx
	movl	%ebx, %r12d
	cmpl	%r15d, %r12d
	jl	LBB14_1
LBB14_5:
	movl	%r12d, %eax
	addq	$16, %rsp
	popq	%rbx
	popq	%r12
	popq	%r14
	popq	%r15
	popq	%rbp
	retq
	.cfi_endproc
                                        ## -- End function
	.p2align	4, 0x90                         ## -- Begin function _ZNKSt3__16vectorIdNS_9allocatorIdEEE4sizeEv
__ZNKSt3__16vectorIdNS_9allocatorIdEEE4sizeEv: ## @_ZNKSt3__16vectorIdNS_9allocatorIdEEE4sizeEv
	.cfi_startproc
## %bb.0:
	pushq	%rbp
	.cfi_def_cfa_offset 16
	.cfi_offset %rbp, -16
	movq	%rsp, %rbp
	.cfi_def_cfa_register %rbp
	movq	8(%rdi), %rax
	subq	(%rdi), %rax
	sarq	$3, %rax
	popq	%rbp
	retq
	.cfi_endproc
                                        ## -- End function
	.p2align	4, 0x90                         ## -- Begin function _ZNKSt3__16vectorIdNS_9allocatorIdEEEixEm
__ZNKSt3__16vectorIdNS_9allocatorIdEEEixEm: ## @_ZNKSt3__16vectorIdNS_9allocatorIdEEEixEm
	.cfi_startproc
## %bb.0:
	pushq	%rbp
	.cfi_def_cfa_offset 16
	.cfi_offset %rbp, -16
	movq	%rsp, %rbp
	.cfi_def_cfa_register %rbp
	leaq	(,%rsi,8), %rax
	addq	(%rdi), %rax
	popq	%rbp
	retq
	.cfi_endproc
                                        ## -- End function
	.globl	__Z16cumulative_tableRKNSt3__16vectorIdNS_9allocatorIdEEEE ## -- Begin function _Z16cumulative_tableRKNSt3__16vectorIdNS_9allocatorIdEEEE
	.p2align	4, 0x90
__Z16cumulative_tableRKNSt3__16vectorIdNS_9allocatorIdEEEE: ## @_Z16cumulative_tableRKNSt3__16vectorIdNS_9allocatorIdEEEE
Lfunc_begin1:
	.cfi_startproc
	.cfi_personality 155, ___gxx_personality_v0
	.cfi_lsda 16, Lexception1
## %bb.0:
	pushq	%rbp
	.cfi_def_cfa_offset 16
	.cfi_offset %rbp, -16
	movq	%rsp, %rbp
	.cfi_def_cfa_register %rbp
	pushq	%r15
	pushq	%r14
	pushq	%r12
	pushq	%rbx
	subq	$32, %rsp
	.cfi_offset %rbx, -48
	.cfi_offset %r12, -40
	.cfi_offset %r14, -32
	.cfi_offset %r15, -24
	movq	%rdi, %r14
	leaq	-64(%rbp), %r15
	movq	%r15, %rdi
	callq	__ZNSt3__16vectorIdNS_9allocatorIdEEEC1ERKS3_
	movq	%r15, %rdi
	callq	__ZNSt3__16vectorIdNS_9allocatorIdEEE5beginEv
	movq	%rax, %rbx
	movq	%r15, %rdi
	callq	__ZNSt3__16vectorIdNS_9allocatorIdEEE3endEv
	movq	%rbx, %rdi
	movq	%rax, %rsi
	callq	__ZNSt3__1L10accumulateINS_11__wrap_iterIPdEEdEET0_T_S5_S4_
	movsd	%xmm0, -40(%rbp)                ## 8-byte Spill
	movq	%r15, %rdi
	callq	__ZNKSt3__16vectorIdNS_9allocatorIdEEE4sizeEv
	testq	%rax, %rax
	je	LBB17_3
## %bb.1:
	xorl	%ebx, %ebx
	leaq	-64(%rbp), %r15
	.p2align	4, 0x90
LBB17_2:                                ## =>This Inner Loop Header: Depth=1
	movq	%r15, %rdi
	movq	%rbx, %rsi
	callq	__ZNSt3__16vectorIdNS_9allocatorIdEEEixEm
	movsd	(%rax), %xmm0                   ## xmm0 = mem[0],zero
	divsd	-40(%rbp), %xmm0                ## 8-byte Folded Reload
	movsd	%xmm0, (%rax)
	incq	%rbx
	movq	%r15, %rdi
	callq	__ZNKSt3__16vectorIdNS_9allocatorIdEEE4sizeEv
	cmpq	%rbx, %rax
	ja	LBB17_2
LBB17_3:
Ltmp3:
	movq	%r14, %rdi
	movq	%rax, %rsi
	callq	__ZNSt3__16vectorIdNS_9allocatorIdEEEC1Em
Ltmp4:
## %bb.4:
	leaq	-64(%rbp), %r15
	movq	%r15, %rdi
	callq	__ZNSt3__16vectorIdNS_9allocatorIdEEE5beginEv
	movq	%rax, %r12
	movq	%r15, %rdi
	callq	__ZNSt3__16vectorIdNS_9allocatorIdEEE3endEv
	movq	%rax, %rbx
	movq	%r14, %rdi
	callq	__ZNSt3__16vectorIdNS_9allocatorIdEEE5beginEv
	movq	%r12, %rdi
	movq	%rbx, %rsi
	movq	%rax, %rdx
	callq	__ZNSt3__1L11partial_sumINS_11__wrap_iterIPdEES3_EET0_T_S5_S4_
	movq	%r15, %rdi
	callq	__ZNSt3__16vectorIdNS_9allocatorIdEEED1Ev
	movq	%r14, %rax
	addq	$32, %rsp
	popq	%rbx
	popq	%r12
	popq	%r14
	popq	%r15
	popq	%rbp
	retq
LBB17_5:
Ltmp5:
	movq	%rax, %rbx
	leaq	-64(%rbp), %rdi
	callq	__ZNSt3__16vectorIdNS_9allocatorIdEEED1Ev
	movq	%rbx, %rdi
	callq	__Unwind_Resume
	ud2
Lfunc_end1:
	.cfi_endproc
	.section	__TEXT,__gcc_except_tab
	.p2align	2
GCC_except_table17:
Lexception1:
	.byte	255                             ## @LPStart Encoding = omit
	.byte	255                             ## @TType Encoding = omit
	.byte	1                               ## Call site Encoding = uleb128
	.uleb128 Lcst_end1-Lcst_begin1
Lcst_begin1:
	.uleb128 Lfunc_begin1-Lfunc_begin1      ## >> Call Site 1 <<
	.uleb128 Ltmp3-Lfunc_begin1             ##   Call between Lfunc_begin1 and Ltmp3
	.byte	0                               ##     has no landing pad
	.byte	0                               ##   On action: cleanup
	.uleb128 Ltmp3-Lfunc_begin1             ## >> Call Site 2 <<
	.uleb128 Ltmp4-Ltmp3                    ##   Call between Ltmp3 and Ltmp4
	.uleb128 Ltmp5-Lfunc_begin1             ##     jumps to Ltmp5
	.byte	0                               ##   On action: cleanup
	.uleb128 Ltmp4-Lfunc_begin1             ## >> Call Site 3 <<
	.uleb128 Lfunc_end1-Ltmp4               ##   Call between Ltmp4 and Lfunc_end1
	.byte	0                               ##     has no landing pad
	.byte	0                               ##   On action: cleanup
Lcst_end1:
	.p2align	2
                                        ## -- End function
	.section	__TEXT,__text,regular,pure_instructions
	.globl	__ZNSt3__16vectorIdNS_9allocatorIdEEEC1ERKS3_ ## -- Begin function _ZNSt3__16vectorIdNS_9allocatorIdEEEC1ERKS3_
	.weak_def_can_be_hidden	__ZNSt3__16vectorIdNS_9allocatorIdEEEC1ERKS3_
	.p2align	4, 0x90
__ZNSt3__16vectorIdNS_9allocatorIdEEEC1ERKS3_: ## @_ZNSt3__16vectorIdNS_9allocatorIdEEEC1ERKS3_
	.cfi_startproc
## %bb.0:
	pushq	%rbp
	.cfi_def_cfa_offset 16
	.cfi_offset %rbp, -16
	movq	%rsp, %rbp
	.cfi_def_cfa_register %rbp
	callq	__ZNSt3__16vectorIdNS_9allocatorIdEEEC2ERKS3_
	popq	%rbp
	retq
	.cfi_endproc
                                        ## -- End function
	.p2align	4, 0x90                         ## -- Begin function _ZNSt3__1L10accumulateINS_11__wrap_iterIPdEEdEET0_T_S5_S4_
__ZNSt3__1L10accumulateINS_11__wrap_iterIPdEEdEET0_T_S5_S4_: ## @_ZNSt3__1L10accumulateINS_11__wrap_iterIPdEEdEET0_T_S5_S4_
	.cfi_startproc
## %bb.0:
	pushq	%rbp
	.cfi_def_cfa_offset 16
	.cfi_offset %rbp, -16
	movq	%rsp, %rbp
	.cfi_def_cfa_register %rbp
	pushq	%r14
	pushq	%rbx
	subq	$32, %rsp
	.cfi_offset %rbx, -32
	.cfi_offset %r14, -24
	movq	%rdi, -40(%rbp)
	movq	%rsi, -32(%rbp)
	leaq	-40(%rbp), %rdi
	leaq	-32(%rbp), %rsi
	callq	__ZNSt3__1neIPdEEbRKNS_11__wrap_iterIT_EES6_
	xorpd	%xmm0, %xmm0
	movsd	%xmm0, -24(%rbp)                ## 8-byte Spill
	testb	%al, %al
	je	LBB19_3
## %bb.1:
	xorpd	%xmm0, %xmm0
	movsd	%xmm0, -24(%rbp)                ## 8-byte Spill
	leaq	-40(%rbp), %rbx
	leaq	-32(%rbp), %r14
	.p2align	4, 0x90
LBB19_2:                                ## =>This Inner Loop Header: Depth=1
	movq	%rbx, %rdi
	callq	__ZNKSt3__111__wrap_iterIPdEdeEv
	movsd	-24(%rbp), %xmm0                ## 8-byte Reload
                                        ## xmm0 = mem[0],zero
	addsd	(%rax), %xmm0
	movsd	%xmm0, -24(%rbp)                ## 8-byte Spill
	movq	%rbx, %rdi
	callq	__ZNSt3__111__wrap_iterIPdEppEv
	movq	%rbx, %rdi
	movq	%r14, %rsi
	callq	__ZNSt3__1neIPdEEbRKNS_11__wrap_iterIT_EES6_
	testb	%al, %al
	jne	LBB19_2
LBB19_3:
	movsd	-24(%rbp), %xmm0                ## 8-byte Reload
                                        ## xmm0 = mem[0],zero
	addq	$32, %rsp
	popq	%rbx
	popq	%r14
	popq	%rbp
	retq
	.cfi_endproc
                                        ## -- End function
	.p2align	4, 0x90                         ## -- Begin function _ZNSt3__16vectorIdNS_9allocatorIdEEE5beginEv
__ZNSt3__16vectorIdNS_9allocatorIdEEE5beginEv: ## @_ZNSt3__16vectorIdNS_9allocatorIdEEE5beginEv
	.cfi_startproc
## %bb.0:
	pushq	%rbp
	.cfi_def_cfa_offset 16
	.cfi_offset %rbp, -16
	movq	%rsp, %rbp
	.cfi_def_cfa_register %rbp
	movq	(%rdi), %rdi
	callq	__ZNSt3__16vectorIdNS_9allocatorIdEEE11__make_iterEPd
	popq	%rbp
	retq
	.cfi_endproc
                                        ## -- End function
	.p2align	4, 0x90                         ## -- Begin function _ZNSt3__16vectorIdNS_9allocatorIdEEE3endEv
__ZNSt3__16vectorIdNS_9allocatorIdEEE3endEv: ## @_ZNSt3__16vectorIdNS_9allocatorIdEEE3endEv
	.cfi_startproc
## %bb.0:
	pushq	%rbp
	.cfi_def_cfa_offset 16
	.cfi_offset %rbp, -16
	movq	%rsp, %rbp
	.cfi_def_cfa_register %rbp
	movq	8(%rdi), %rdi
	callq	__ZNSt3__16vectorIdNS_9allocatorIdEEE11__make_iterEPd
	popq	%rbp
	retq
	.cfi_endproc
                                        ## -- End function
	.p2align	4, 0x90                         ## -- Begin function _ZNSt3__16vectorIdNS_9allocatorIdEEEixEm
__ZNSt3__16vectorIdNS_9allocatorIdEEEixEm: ## @_ZNSt3__16vectorIdNS_9allocatorIdEEEixEm
	.cfi_startproc
## %bb.0:
	pushq	%rbp
	.cfi_def_cfa_offset 16
	.cfi_offset %rbp, -16
	movq	%rsp, %rbp
	.cfi_def_cfa_register %rbp
	leaq	(,%rsi,8), %rax
	addq	(%rdi), %rax
	popq	%rbp
	retq
	.cfi_endproc
                                        ## -- End function
	.globl	__ZNSt3__16vectorIdNS_9allocatorIdEEEC1Em ## -- Begin function _ZNSt3__16vectorIdNS_9allocatorIdEEEC1Em
	.weak_def_can_be_hidden	__ZNSt3__16vectorIdNS_9allocatorIdEEEC1Em
	.p2align	4, 0x90
__ZNSt3__16vectorIdNS_9allocatorIdEEEC1Em: ## @_ZNSt3__16vectorIdNS_9allocatorIdEEEC1Em
	.cfi_startproc
## %bb.0:
	pushq	%rbp
	.cfi_def_cfa_offset 16
	.cfi_offset %rbp, -16
	movq	%rsp, %rbp
	.cfi_def_cfa_register %rbp
	callq	__ZNSt3__16vectorIdNS_9allocatorIdEEEC2Em
	popq	%rbp
	retq
	.cfi_endproc
                                        ## -- End function
	.p2align	4, 0x90                         ## -- Begin function _ZNSt3__1L11partial_sumINS_11__wrap_iterIPdEES3_EET0_T_S5_S4_
__ZNSt3__1L11partial_sumINS_11__wrap_iterIPdEES3_EET0_T_S5_S4_: ## @_ZNSt3__1L11partial_sumINS_11__wrap_iterIPdEES3_EET0_T_S5_S4_
	.cfi_startproc
## %bb.0:
	pushq	%rbp
	.cfi_def_cfa_offset 16
	.cfi_offset %rbp, -16
	movq	%rsp, %rbp
	.cfi_def_cfa_register %rbp
	pushq	%r15
	pushq	%r14
	pushq	%rbx
	subq	$40, %rsp
	.cfi_offset %rbx, -40
	.cfi_offset %r14, -32
	.cfi_offset %r15, -24
	movq	%rdi, -48(%rbp)
	movq	%rsi, -40(%rbp)
	movq	%rdx, -56(%rbp)
	leaq	-48(%rbp), %rdi
	leaq	-40(%rbp), %rsi
	callq	__ZNSt3__1neIPdEEbRKNS_11__wrap_iterIT_EES6_
	testb	%al, %al
	je	LBB24_4
## %bb.1:
	leaq	-48(%rbp), %rbx
	movq	%rbx, %rdi
	callq	__ZNKSt3__111__wrap_iterIPdEdeEv
	movsd	(%rax), %xmm0                   ## xmm0 = mem[0],zero
	movsd	%xmm0, -32(%rbp)                ## 8-byte Spill
	leaq	-56(%rbp), %r14
	movq	%r14, %rdi
	callq	__ZNKSt3__111__wrap_iterIPdEdeEv
	movsd	-32(%rbp), %xmm0                ## 8-byte Reload
                                        ## xmm0 = mem[0],zero
	movsd	%xmm0, (%rax)
	movq	%rbx, %rdi
	callq	__ZNSt3__111__wrap_iterIPdEppEv
	movq	%r14, %rdi
	callq	__ZNSt3__111__wrap_iterIPdEppEv
	leaq	-40(%rbp), %rsi
	movq	%rbx, %rdi
	callq	__ZNSt3__1neIPdEEbRKNS_11__wrap_iterIT_EES6_
	testb	%al, %al
	je	LBB24_4
## %bb.2:
	leaq	-48(%rbp), %rbx
	leaq	-56(%rbp), %r14
	leaq	-40(%rbp), %r15
	.p2align	4, 0x90
LBB24_3:                                ## =>This Inner Loop Header: Depth=1
	movq	%rbx, %rdi
	callq	__ZNKSt3__111__wrap_iterIPdEdeEv
	movsd	-32(%rbp), %xmm0                ## 8-byte Reload
                                        ## xmm0 = mem[0],zero
	addsd	(%rax), %xmm0
	movsd	%xmm0, -32(%rbp)                ## 8-byte Spill
	movq	%r14, %rdi
	callq	__ZNKSt3__111__wrap_iterIPdEdeEv
	movsd	-32(%rbp), %xmm0                ## 8-byte Reload
                                        ## xmm0 = mem[0],zero
	movsd	%xmm0, (%rax)
	movq	%rbx, %rdi
	callq	__ZNSt3__111__wrap_iterIPdEppEv
	movq	%r14, %rdi
	callq	__ZNSt3__111__wrap_iterIPdEppEv
	movq	%rbx, %rdi
	movq	%r15, %rsi
	callq	__ZNSt3__1neIPdEEbRKNS_11__wrap_iterIT_EES6_
	testb	%al, %al
	jne	LBB24_3
LBB24_4:
	addq	$40, %rsp
	popq	%rbx
	popq	%r14
	popq	%r15
	popq	%rbp
	retq
	.cfi_endproc
                                        ## -- End function
	.p2align	4, 0x90                         ## -- Begin function _ZNSt3__16vectorIdNS_9allocatorIdEEED1Ev
__ZNSt3__16vectorIdNS_9allocatorIdEEED1Ev: ## @_ZNSt3__16vectorIdNS_9allocatorIdEEED1Ev
	.cfi_startproc
## %bb.0:
	pushq	%rbp
	.cfi_def_cfa_offset 16
	.cfi_offset %rbp, -16
	movq	%rsp, %rbp
	.cfi_def_cfa_register %rbp
	callq	__ZNSt3__16vectorIdNS_9allocatorIdEEED2Ev
	popq	%rbp
	retq
	.cfi_endproc
                                        ## -- End function
	.globl	__Z6sampleRKNSt3__16vectorIdNS_9allocatorIdEEEE ## -- Begin function _Z6sampleRKNSt3__16vectorIdNS_9allocatorIdEEEE
	.p2align	4, 0x90
__Z6sampleRKNSt3__16vectorIdNS_9allocatorIdEEEE: ## @_Z6sampleRKNSt3__16vectorIdNS_9allocatorIdEEEE
Lfunc_begin2:
	.cfi_startproc
	.cfi_personality 155, ___gxx_personality_v0
	.cfi_lsda 16, Lexception2
## %bb.0:
	pushq	%rbp
	.cfi_def_cfa_offset 16
	.cfi_offset %rbp, -16
	movq	%rsp, %rbp
	.cfi_def_cfa_register %rbp
	pushq	%r14
	pushq	%rbx
	subq	$32, %rsp
	.cfi_offset %rbx, -32
	.cfi_offset %r14, -24
	movq	%rdi, %rsi
	leaq	-40(%rbp), %rdi
	callq	__Z16cumulative_tableRKNSt3__16vectorIdNS_9allocatorIdEEEE
Ltmp6:
	callq	__ZNSt3__125uniform_real_distributionIdEclINS_23mersenne_twister_engineIjLm32ELm624ELm397ELm31ELj2567483615ELm11ELj4294967295ELm7ELj2636928640ELm15ELj4022730752ELm18ELj1812433253EEEEEdRT_
Ltmp7:
## %bb.1:
	leaq	-40(%rbp), %r14
	movq	%r14, %rdi
	callq	__Z14binary_search_RKNSt3__16vectorIdNS_9allocatorIdEEEEd
	movl	%eax, %ebx
	movq	%r14, %rdi
	callq	__ZNSt3__16vectorIdNS_9allocatorIdEEED1Ev
	movl	%ebx, %eax
	addq	$32, %rsp
	popq	%rbx
	popq	%r14
	popq	%rbp
	retq
LBB26_2:
Ltmp8:
	movq	%rax, %rbx
	leaq	-40(%rbp), %rdi
	callq	__ZNSt3__16vectorIdNS_9allocatorIdEEED1Ev
	movq	%rbx, %rdi
	callq	__Unwind_Resume
	ud2
Lfunc_end2:
	.cfi_endproc
	.section	__TEXT,__gcc_except_tab
	.p2align	2
GCC_except_table26:
Lexception2:
	.byte	255                             ## @LPStart Encoding = omit
	.byte	255                             ## @TType Encoding = omit
	.byte	1                               ## Call site Encoding = uleb128
	.uleb128 Lcst_end2-Lcst_begin2
Lcst_begin2:
	.uleb128 Lfunc_begin2-Lfunc_begin2      ## >> Call Site 1 <<
	.uleb128 Ltmp6-Lfunc_begin2             ##   Call between Lfunc_begin2 and Ltmp6
	.byte	0                               ##     has no landing pad
	.byte	0                               ##   On action: cleanup
	.uleb128 Ltmp6-Lfunc_begin2             ## >> Call Site 2 <<
	.uleb128 Ltmp7-Ltmp6                    ##   Call between Ltmp6 and Ltmp7
	.uleb128 Ltmp8-Lfunc_begin2             ##     jumps to Ltmp8
	.byte	0                               ##   On action: cleanup
	.uleb128 Ltmp7-Lfunc_begin2             ## >> Call Site 3 <<
	.uleb128 Lfunc_end2-Ltmp7               ##   Call between Ltmp7 and Lfunc_end2
	.byte	0                               ##     has no landing pad
	.byte	0                               ##   On action: cleanup
Lcst_end2:
	.p2align	2
                                        ## -- End function
	.section	__TEXT,__text,regular,pure_instructions
	.p2align	4, 0x90                         ## -- Begin function _ZNSt3__125uniform_real_distributionIdEclINS_23mersenne_twister_engineIjLm32ELm624ELm397ELm31ELj2567483615ELm11ELj4294967295ELm7ELj2636928640ELm15ELj4022730752ELm18ELj1812433253EEEEEdRT_
__ZNSt3__125uniform_real_distributionIdEclINS_23mersenne_twister_engineIjLm32ELm624ELm397ELm31ELj2567483615ELm11ELj4294967295ELm7ELj2636928640ELm15ELj4022730752ELm18ELj1812433253EEEEEdRT_: ## @_ZNSt3__125uniform_real_distributionIdEclINS_23mersenne_twister_engineIjLm32ELm624ELm397ELm31ELj2567483615ELm11ELj4294967295ELm7ELj2636928640ELm15ELj4022730752ELm18ELj1812433253EEEEEdRT_
	.cfi_startproc
## %bb.0:
	pushq	%rbp
	.cfi_def_cfa_offset 16
	.cfi_offset %rbp, -16
	movq	%rsp, %rbp
	.cfi_def_cfa_register %rbp
	callq	__ZNSt3__125uniform_real_distributionIdEclINS_23mersenne_twister_engineIjLm32ELm624ELm397ELm31ELj2567483615ELm11ELj4294967295ELm7ELj2636928640ELm15ELj4022730752ELm18ELj1812433253EEEEEdRT_RKNS1_10param_typeE
	popq	%rbp
	retq
	.cfi_endproc
                                        ## -- End function
	.globl	__Z15diagonal_updateRNSt3__16vectorIiNS_9allocatorIiEEEES4_RKNS0_IdNS1_IdEEEES8_S8_RKNS0_IS6_NS1_IS6_EEEES8_d ## -- Begin function _Z15diagonal_updateRNSt3__16vectorIiNS_9allocatorIiEEEES4_RKNS0_IdNS1_IdEEEES8_S8_RKNS0_IS6_NS1_IS6_EEEES8_d
	.p2align	4, 0x90
__Z15diagonal_updateRNSt3__16vectorIiNS_9allocatorIiEEEES4_RKNS0_IdNS1_IdEEEES8_S8_RKNS0_IS6_NS1_IS6_EEEES8_d: ## @_Z15diagonal_updateRNSt3__16vectorIiNS_9allocatorIiEEEES4_RKNS0_IdNS1_IdEEEES8_S8_RKNS0_IS6_NS1_IS6_EEEES8_d
Lfunc_begin3:
	.cfi_startproc
	.cfi_personality 155, ___gxx_personality_v0
	.cfi_lsda 16, Lexception3
## %bb.0:
	pushq	%rbp
	.cfi_def_cfa_offset 16
	.cfi_offset %rbp, -16
	movq	%rsp, %rbp
	.cfi_def_cfa_register %rbp
	pushq	%r15
	pushq	%r14
	pushq	%r13
	pushq	%r12
	pushq	%rbx
	subq	$152, %rsp
	.cfi_offset %rbx, -56
	.cfi_offset %r12, -48
	.cfi_offset %r13, -40
	.cfi_offset %r14, -32
	.cfi_offset %r15, -24
	movsd	%xmm0, -48(%rbp)                ## 8-byte Spill
	movq	%r9, -128(%rbp)                 ## 8-byte Spill
	movq	%r8, -192(%rbp)                 ## 8-byte Spill
	movq	%rcx, -184(%rbp)                ## 8-byte Spill
	movq	%rdx, -176(%rbp)                ## 8-byte Spill
	movq	%rsi, %r14
	movq	%rdi, -104(%rbp)                ## 8-byte Spill
	callq	__ZNKSt3__16vectorIiNS_9allocatorIiEEE4sizeEv
	movq	%rax, %r13
	movl	%r13d, %edi
	callq	__ZL4sqrtIiENSt3__19enable_ifIXsr3std11is_integralIT_EE5valueEdE4typeES2_
	movsd	%xmm0, -72(%rbp)                ## 8-byte Spill
	movq	%r14, %rdi
	callq	__ZNKSt3__16vectorIiNS_9allocatorIiEEE4sizeEv
	movq	%rax, -160(%rbp)                ## 8-byte Spill
	movq	%r14, %rdi
	callq	__ZNSt3__16vectorIiNS_9allocatorIiEEE5beginEv
	movq	%rax, -80(%rbp)
	leaq	-136(%rbp), %rbx
	leaq	-80(%rbp), %rsi
	movq	%rbx, %rdi
	callq	__ZNSt3__111__wrap_iterIPKiEC1IPiEERKNS0_IT_EEPNS_9enable_ifIXsr14is_convertibleIS6_S2_EE5valueEvE4typeE
	movq	%r14, %rdi
	callq	__ZNSt3__16vectorIiNS_9allocatorIiEEE3endEv
	movq	%rax, -80(%rbp)
	leaq	-80(%rbp), %rsi
	movq	%rbx, %rdi
	callq	__ZNSt3__1neIPKiPiEEbRKNS_11__wrap_iterIT_EERKNS4_IT0_EE
	xorl	%r12d, %r12d
	testb	%al, %al
	je	LBB28_3
## %bb.1:
	xorl	%r12d, %r12d
	leaq	-136(%rbp), %rbx
	leaq	-80(%rbp), %r15
	.p2align	4, 0x90
LBB28_2:                                ## =>This Inner Loop Header: Depth=1
	movq	%rbx, %rdi
	callq	__ZNKSt3__111__wrap_iterIPKiEdeEv
	xorl	%ecx, %ecx
	cmpl	$-1, (%rax)
	setne	%cl
	addl	%ecx, %r12d
	movq	%rbx, %rdi
	callq	__ZNSt3__111__wrap_iterIPKiEppEv
	movq	%r14, %rdi
	callq	__ZNSt3__16vectorIiNS_9allocatorIiEEE3endEv
	movq	%rax, -80(%rbp)
	movq	%rbx, %rdi
	movq	%r15, %rsi
	callq	__ZNSt3__1neIPKiPiEEbRKNS_11__wrap_iterIT_EERKNS4_IT0_EE
	testb	%al, %al
	jne	LBB28_2
LBB28_3:
	movq	%r14, -64(%rbp)                 ## 8-byte Spill
	testl	%r13d, %r13d
	movq	%r13, -120(%rbp)                ## 8-byte Spill
	jle	LBB28_8
## %bb.4:
	movl	%r13d, %r14d
	xorpd	%xmm0, %xmm0
	movsd	%xmm0, -56(%rbp)                ## 8-byte Spill
	xorl	%r15d, %r15d
	.p2align	4, 0x90
LBB28_5:                                ## =>This Loop Header: Depth=1
                                        ##     Child Loop BB28_6 Depth 2
	movq	-128(%rbp), %rdi                ## 8-byte Reload
	movq	%r15, %rsi
	callq	__ZNKSt3__16vectorINS0_IdNS_9allocatorIdEEEENS1_IS3_EEEixEm
	movq	%rax, %r13
	xorl	%ebx, %ebx
	movsd	-56(%rbp), %xmm0                ## 8-byte Reload
                                        ## xmm0 = mem[0],zero
	.p2align	4, 0x90
LBB28_6:                                ##   Parent Loop BB28_5 Depth=1
                                        ## =>  This Inner Loop Header: Depth=2
	movsd	%xmm0, -56(%rbp)                ## 8-byte Spill
	movq	%r13, %rdi
	movq	%rbx, %rsi
	callq	__ZNKSt3__16vectorIdNS_9allocatorIdEEEixEm
	movsd	-56(%rbp), %xmm0                ## 8-byte Reload
                                        ## xmm0 = mem[0],zero
	addsd	(%rax), %xmm0
	incq	%rbx
	cmpq	%rbx, %r14
	jne	LBB28_6
## %bb.7:                               ##   in Loop: Header=BB28_5 Depth=1
	movsd	%xmm0, -56(%rbp)                ## 8-byte Spill
	incq	%r15
	cmpq	%r14, %r15
	jne	LBB28_5
	jmp	LBB28_9
LBB28_8:
	xorpd	%xmm0, %xmm0
	movsd	%xmm0, -56(%rbp)                ## 8-byte Spill
LBB28_9:
	movq	-160(%rbp), %rax                ## 8-byte Reload
	testl	%eax, %eax
	jle	LBB28_40
## %bb.10:
	cvttsd2si	-72(%rbp), %ecx         ## 8-byte Folded Reload
	movl	%ecx, -72(%rbp)                 ## 4-byte Spill
	movsd	-56(%rbp), %xmm0                ## 8-byte Reload
                                        ## xmm0 = mem[0],zero
	mulsd	-48(%rbp), %xmm0                ## 8-byte Folded Reload
	movq	-120(%rbp), %rcx                ## 8-byte Reload
	leal	(%rcx,%rcx), %ecx
	movl	%ecx, -120(%rbp)                ## 4-byte Spill
	leal	1(%rax), %ecx
	movl	%ecx, -140(%rbp)                ## 4-byte Spill
	movl	%eax, %ebx
	xorl	%r14d, %r14d
	movq	-64(%rbp), %r13                 ## 8-byte Reload
	movsd	%xmm0, -56(%rbp)                ## 8-byte Spill
	movq	%rbx, -96(%rbp)                 ## 8-byte Spill
	jmp	LBB28_14
	.p2align	4, 0x90
LBB28_11:                               ##   in Loop: Header=BB28_14 Depth=1
	movq	-64(%rbp), %r13                 ## 8-byte Reload
LBB28_12:                               ##   in Loop: Header=BB28_14 Depth=1
	movq	-96(%rbp), %rbx                 ## 8-byte Reload
LBB28_13:                               ##   in Loop: Header=BB28_14 Depth=1
	incq	%r14
	cmpq	%r14, %rbx
	je	LBB28_40
LBB28_14:                               ## =>This Inner Loop Header: Depth=1
	movq	%r13, %rdi
	movq	%r14, %rsi
	callq	__ZNSt3__16vectorIiNS_9allocatorIiEEEixEm
	movl	(%rax), %edi
	cmpl	$-1, %edi
	je	LBB28_19
## %bb.15:                              ##   in Loop: Header=BB28_14 Depth=1
	cmpl	-120(%rbp), %edi                ## 4-byte Folded Reload
	jge	LBB28_22
## %bb.16:                              ##   in Loop: Header=BB28_14 Depth=1
	movl	%edi, %eax
	andl	$1, %eax
	je	LBB28_22
## %bb.17:                              ##   in Loop: Header=BB28_14 Depth=1
	movl	%r12d, -48(%rbp)                ## 4-byte Spill
	movq	%rbx, %r12
	movq	%r13, %r15
	movl	-72(%rbp), %edx                 ## 4-byte Reload
	movl	%edx, %esi
	callq	__Z16operator_to_bondiii
	movq	%rax, -136(%rbp)
	leaq	-136(%rbp), %r13
	movq	%r13, %rdi
	xorl	%esi, %esi
	callq	__ZNSt3__15arrayIiLm2EEixEm
	movslq	(%rax), %rbx
	movl	$1, %esi
	movq	%r13, %rdi
	callq	__ZNSt3__15arrayIiLm2EEixEm
	cmpl	(%rax), %ebx
	jne	LBB28_41
## %bb.18:                              ##   in Loop: Header=BB28_14 Depth=1
	movq	-104(%rbp), %rdi                ## 8-byte Reload
	movq	%rbx, %rsi
	callq	__ZNSt3__16vectorIiNS_9allocatorIiEEEixEm
	negl	(%rax)
	movq	%r15, %r13
	movq	%r12, %rbx
	movl	-48(%rbp), %r12d                ## 4-byte Reload
	jmp	LBB28_13
	.p2align	4, 0x90
LBB28_19:                               ##   in Loop: Header=BB28_14 Depth=1
	movq	16(%rbp), %rdi
	callq	__Z6sampleRKNSt3__16vectorIdNS_9allocatorIdEEEE
	movl	%eax, %r15d
	movslq	%eax, %r13
	movq	-128(%rbp), %rdi                ## 8-byte Reload
	movq	%r13, %rsi
	callq	__ZNKSt3__16vectorINS0_IdNS_9allocatorIdEEEENS1_IS3_EEEixEm
	movq	%rax, %rdi
	callq	__Z6sampleRKNSt3__16vectorIdNS_9allocatorIdEEEE
	movl	%eax, %ebx
	movq	-160(%rbp), %rax                ## 8-byte Reload
                                        ## kill: def $eax killed $eax killed $rax
	subl	%r12d, %eax
	xorps	%xmm0, %xmm0
	cvtsi2sd	%eax, %xmm0
	movsd	-56(%rbp), %xmm1                ## 8-byte Reload
                                        ## xmm1 = mem[0],zero
	divsd	%xmm0, %xmm1
	movsd	%xmm1, -48(%rbp)                ## 8-byte Spill
	callq	__ZNSt3__125uniform_real_distributionIdEclINS_23mersenne_twister_engineIjLm32ELm624ELm397ELm31ELj2567483615ELm11ELj4294967295ELm7ELj2636928640ELm15ELj4022730752ELm18ELj1812433253EEEEEdRT_
	movsd	-48(%rbp), %xmm1                ## 8-byte Reload
                                        ## xmm1 = mem[0],zero
	ucomisd	%xmm0, %xmm1
	jbe	LBB28_11
## %bb.20:                              ##   in Loop: Header=BB28_14 Depth=1
	cmpl	%ebx, %r15d
	jne	LBB28_24
## %bb.21:                              ##   in Loop: Header=BB28_14 Depth=1
	addl	%r15d, %r15d
	jmp	LBB28_39
	.p2align	4, 0x90
LBB28_22:                               ##   in Loop: Header=BB28_14 Depth=1
	movl	-140(%rbp), %eax                ## 4-byte Reload
	subl	%r12d, %eax
	xorps	%xmm0, %xmm0
	cvtsi2sd	%eax, %xmm0
	divsd	-56(%rbp), %xmm0                ## 8-byte Folded Reload
	movsd	%xmm0, -48(%rbp)                ## 8-byte Spill
	callq	__ZNSt3__125uniform_real_distributionIdEclINS_23mersenne_twister_engineIjLm32ELm624ELm397ELm31ELj2567483615ELm11ELj4294967295ELm7ELj2636928640ELm15ELj4022730752ELm18ELj1812433253EEEEEdRT_
	movsd	-48(%rbp), %xmm1                ## 8-byte Reload
                                        ## xmm1 = mem[0],zero
	ucomisd	%xmm0, %xmm1
	jbe	LBB28_13
## %bb.23:                              ##   in Loop: Header=BB28_14 Depth=1
	movq	%r13, %rdi
	movq	%r14, %rsi
	callq	__ZNSt3__16vectorIiNS_9allocatorIiEEEixEm
	movl	$-1, (%rax)
	decl	%r12d
	jmp	LBB28_13
LBB28_24:                               ##   in Loop: Header=BB28_14 Depth=1
	movl	%r13d, %edi
	movl	%ebx, %esi
	movl	-72(%rbp), %ecx                 ## 4-byte Reload
	movl	%ecx, %edx
	callq	__Z7vec_miniiii
	movl	%ebx, -48(%rbp)                 ## 4-byte Spill
	movslq	%eax, %rbx
	movq	-184(%rbp), %rdi                ## 8-byte Reload
	movq	%rbx, %rsi
	callq	__ZNKSt3__16vectorIdNS_9allocatorIdEEEixEm
	movsd	(%rax), %xmm0                   ## xmm0 = mem[0],zero
	movsd	%xmm0, -168(%rbp)               ## 8-byte Spill
	movq	-192(%rbp), %rdi                ## 8-byte Reload
	movq	%rbx, %rsi
	callq	__ZNKSt3__16vectorIdNS_9allocatorIdEEEixEm
	movsd	(%rax), %xmm0                   ## xmm0 = mem[0],zero
	movsd	%xmm0, -88(%rbp)                ## 8-byte Spill
	movq	-176(%rbp), %rdi                ## 8-byte Reload
	movq	%rbx, %rsi
	callq	__ZNKSt3__16vectorIdNS_9allocatorIdEEEixEm
	movsd	(%rax), %xmm0                   ## xmm0 = mem[0],zero
	movsd	%xmm0, -112(%rbp)               ## 8-byte Spill
	movq	-104(%rbp), %rdi                ## 8-byte Reload
	movq	%r13, %rsi
	callq	__ZNSt3__16vectorIiNS_9allocatorIiEEEixEm
	movl	(%rax), %ebx
	movslq	-48(%rbp), %rsi                 ## 4-byte Folded Reload
	cmpl	$1, %ebx
	movq	%rsi, -152(%rbp)                ## 8-byte Spill
	je	LBB28_31
## %bb.25:                              ##   in Loop: Header=BB28_14 Depth=1
	cmpl	$-1, %ebx
	jne	LBB28_34
## %bb.26:                              ##   in Loop: Header=BB28_14 Depth=1
	movq	-104(%rbp), %rdi                ## 8-byte Reload
	callq	__ZNSt3__16vectorIiNS_9allocatorIiEEEixEm
	movl	(%rax), %eax
	cmpl	$-1, %eax
	je	LBB28_29
## %bb.27:                              ##   in Loop: Header=BB28_14 Depth=1
	cmpl	$1, %eax
	jne	LBB28_30
## %bb.28:                              ##   in Loop: Header=BB28_14 Depth=1
	movsd	-88(%rbp), %xmm0                ## 8-byte Reload
                                        ## xmm0 = mem[0],zero
	addsd	-112(%rbp), %xmm0               ## 8-byte Folded Reload
	jmp	LBB28_36
LBB28_29:                               ##   in Loop: Header=BB28_14 Depth=1
	movsd	-88(%rbp), %xmm0                ## 8-byte Reload
                                        ## xmm0 = mem[0],zero
	jmp	LBB28_36
LBB28_30:                               ##   in Loop: Header=BB28_14 Depth=1
	cmpl	$1, %ebx
	movq	-152(%rbp), %rsi                ## 8-byte Reload
	jne	LBB28_34
LBB28_31:                               ##   in Loop: Header=BB28_14 Depth=1
	movq	-104(%rbp), %rdi                ## 8-byte Reload
	callq	__ZNSt3__16vectorIiNS_9allocatorIiEEEixEm
	movl	(%rax), %eax
	cmpl	$1, %eax
	je	LBB28_35
## %bb.32:                              ##   in Loop: Header=BB28_14 Depth=1
	cmpl	$-1, %eax
	movl	-48(%rbp), %ebx                 ## 4-byte Reload
	xorpd	%xmm0, %xmm0
	jne	LBB28_37
## %bb.33:                              ##   in Loop: Header=BB28_14 Depth=1
	movsd	-88(%rbp), %xmm0                ## 8-byte Reload
                                        ## xmm0 = mem[0],zero
	addsd	-112(%rbp), %xmm0               ## 8-byte Folded Reload
	jmp	LBB28_37
LBB28_34:                               ##   in Loop: Header=BB28_14 Depth=1
	movl	-48(%rbp), %ebx                 ## 4-byte Reload
	xorpd	%xmm0, %xmm0
	jmp	LBB28_37
LBB28_35:                               ##   in Loop: Header=BB28_14 Depth=1
	movsd	-112(%rbp), %xmm1               ## 8-byte Reload
                                        ## xmm1 = mem[0],zero
	addsd	%xmm1, %xmm1
	subsd	-168(%rbp), %xmm1               ## 8-byte Folded Reload
	movsd	-88(%rbp), %xmm0                ## 8-byte Reload
                                        ## xmm0 = mem[0],zero
	addsd	%xmm1, %xmm0
LBB28_36:                               ##   in Loop: Header=BB28_14 Depth=1
	movl	-48(%rbp), %ebx                 ## 4-byte Reload
LBB28_37:                               ##   in Loop: Header=BB28_14 Depth=1
	movsd	%xmm0, -48(%rbp)                ## 8-byte Spill
	movq	-128(%rbp), %rdi                ## 8-byte Reload
	movq	%r13, %rsi
	callq	__ZNKSt3__16vectorINS0_IdNS_9allocatorIdEEEENS1_IS3_EEEixEm
	movq	%rax, %rdi
	movq	-152(%rbp), %rsi                ## 8-byte Reload
	callq	__ZNKSt3__16vectorIdNS_9allocatorIdEEEixEm
	movsd	-48(%rbp), %xmm0                ## 8-byte Reload
                                        ## xmm0 = mem[0],zero
	divsd	(%rax), %xmm0
	movsd	%xmm0, -48(%rbp)                ## 8-byte Spill
	callq	__ZNSt3__125uniform_real_distributionIdEclINS_23mersenne_twister_engineIjLm32ELm624ELm397ELm31ELj2567483615ELm11ELj4294967295ELm7ELj2636928640ELm15ELj4022730752ELm18ELj1812433253EEEEEdRT_
	movsd	-48(%rbp), %xmm1                ## 8-byte Reload
                                        ## xmm1 = mem[0],zero
	ucomisd	%xmm0, %xmm1
	jbe	LBB28_11
## %bb.38:                              ##   in Loop: Header=BB28_14 Depth=1
	movl	%r15d, %edi
	movl	%ebx, %esi
	movl	-72(%rbp), %ecx                 ## 4-byte Reload
	movl	%ecx, %edx
	callq	__Z16bond_to_operatoriiii
	movl	%eax, %r15d
LBB28_39:                               ##   in Loop: Header=BB28_14 Depth=1
	movq	-64(%rbp), %r13                 ## 8-byte Reload
	movq	%r13, %rdi
	movq	%r14, %rsi
	callq	__ZNSt3__16vectorIiNS_9allocatorIiEEEixEm
	movl	%r15d, (%rax)
	incl	%r12d
	jmp	LBB28_12
LBB28_40:
	movl	%r12d, %eax
	addq	$152, %rsp
	popq	%rbx
	popq	%r12
	popq	%r13
	popq	%r14
	popq	%r15
	popq	%rbp
	retq
LBB28_41:
	movl	$16, %edi
	callq	___cxa_allocate_exception
	movq	%rax, %rbx
Ltmp9:
	leaq	L_.str(%rip), %rsi
	movq	%rax, %rdi
	callq	__ZNSt13runtime_errorC1EPKc
Ltmp10:
## %bb.42:
	movq	__ZTISt13runtime_error@GOTPCREL(%rip), %rsi
	movq	__ZNSt13runtime_errorD1Ev@GOTPCREL(%rip), %rdx
	movq	%rbx, %rdi
	callq	___cxa_throw
LBB28_43:
Ltmp11:
	movq	%rax, %r14
	movq	%rbx, %rdi
	callq	___cxa_free_exception
	movq	%r14, %rdi
	callq	__Unwind_Resume
	ud2
Lfunc_end3:
	.cfi_endproc
	.section	__TEXT,__gcc_except_tab
	.p2align	2
GCC_except_table28:
Lexception3:
	.byte	255                             ## @LPStart Encoding = omit
	.byte	255                             ## @TType Encoding = omit
	.byte	1                               ## Call site Encoding = uleb128
	.uleb128 Lcst_end3-Lcst_begin3
Lcst_begin3:
	.uleb128 Lfunc_begin3-Lfunc_begin3      ## >> Call Site 1 <<
	.uleb128 Ltmp9-Lfunc_begin3             ##   Call between Lfunc_begin3 and Ltmp9
	.byte	0                               ##     has no landing pad
	.byte	0                               ##   On action: cleanup
	.uleb128 Ltmp9-Lfunc_begin3             ## >> Call Site 2 <<
	.uleb128 Ltmp10-Ltmp9                   ##   Call between Ltmp9 and Ltmp10
	.uleb128 Ltmp11-Lfunc_begin3            ##     jumps to Ltmp11
	.byte	0                               ##   On action: cleanup
	.uleb128 Ltmp10-Lfunc_begin3            ## >> Call Site 3 <<
	.uleb128 Lfunc_end3-Ltmp10              ##   Call between Ltmp10 and Lfunc_end3
	.byte	0                               ##     has no landing pad
	.byte	0                               ##   On action: cleanup
Lcst_end3:
	.p2align	2
                                        ## -- End function
	.section	__TEXT,__text,regular,pure_instructions
	.p2align	4, 0x90                         ## -- Begin function _ZNKSt3__16vectorIiNS_9allocatorIiEEE4sizeEv
__ZNKSt3__16vectorIiNS_9allocatorIiEEE4sizeEv: ## @_ZNKSt3__16vectorIiNS_9allocatorIiEEE4sizeEv
	.cfi_startproc
## %bb.0:
	pushq	%rbp
	.cfi_def_cfa_offset 16
	.cfi_offset %rbp, -16
	movq	%rsp, %rbp
	.cfi_def_cfa_register %rbp
	movq	8(%rdi), %rax
	subq	(%rdi), %rax
	sarq	$2, %rax
	popq	%rbp
	retq
	.cfi_endproc
                                        ## -- End function
	.p2align	4, 0x90                         ## -- Begin function _ZL4sqrtIiENSt3__19enable_ifIXsr3std11is_integralIT_EE5valueEdE4typeES2_
__ZL4sqrtIiENSt3__19enable_ifIXsr3std11is_integralIT_EE5valueEdE4typeES2_: ## @_ZL4sqrtIiENSt3__19enable_ifIXsr3std11is_integralIT_EE5valueEdE4typeES2_
	.cfi_startproc
## %bb.0:
	pushq	%rbp
	.cfi_def_cfa_offset 16
	.cfi_offset %rbp, -16
	movq	%rsp, %rbp
	.cfi_def_cfa_register %rbp
	cvtsi2sd	%edi, %xmm0
	sqrtsd	%xmm0, %xmm0
	popq	%rbp
	retq
	.cfi_endproc
                                        ## -- End function
	.p2align	4, 0x90                         ## -- Begin function _ZNSt3__16vectorIiNS_9allocatorIiEEE5beginEv
__ZNSt3__16vectorIiNS_9allocatorIiEEE5beginEv: ## @_ZNSt3__16vectorIiNS_9allocatorIiEEE5beginEv
	.cfi_startproc
## %bb.0:
	pushq	%rbp
	.cfi_def_cfa_offset 16
	.cfi_offset %rbp, -16
	movq	%rsp, %rbp
	.cfi_def_cfa_register %rbp
	movq	(%rdi), %rdi
	callq	__ZNSt3__16vectorIiNS_9allocatorIiEEE11__make_iterEPi
	popq	%rbp
	retq
	.cfi_endproc
                                        ## -- End function
	.p2align	4, 0x90                         ## -- Begin function _ZNSt3__111__wrap_iterIPKiEC1IPiEERKNS0_IT_EEPNS_9enable_ifIXsr14is_convertibleIS6_S2_EE5valueEvE4typeE
__ZNSt3__111__wrap_iterIPKiEC1IPiEERKNS0_IT_EEPNS_9enable_ifIXsr14is_convertibleIS6_S2_EE5valueEvE4typeE: ## @_ZNSt3__111__wrap_iterIPKiEC1IPiEERKNS0_IT_EEPNS_9enable_ifIXsr14is_convertibleIS6_S2_EE5valueEvE4typeE
	.cfi_startproc
## %bb.0:
	pushq	%rbp
	.cfi_def_cfa_offset 16
	.cfi_offset %rbp, -16
	movq	%rsp, %rbp
	.cfi_def_cfa_register %rbp
	callq	__ZNSt3__111__wrap_iterIPKiEC2IPiEERKNS0_IT_EEPNS_9enable_ifIXsr14is_convertibleIS6_S2_EE5valueEvE4typeE
	popq	%rbp
	retq
	.cfi_endproc
                                        ## -- End function
	.p2align	4, 0x90                         ## -- Begin function _ZNSt3__1neIPKiPiEEbRKNS_11__wrap_iterIT_EERKNS4_IT0_EE
__ZNSt3__1neIPKiPiEEbRKNS_11__wrap_iterIT_EERKNS4_IT0_EE: ## @_ZNSt3__1neIPKiPiEEbRKNS_11__wrap_iterIT_EERKNS4_IT0_EE
	.cfi_startproc
## %bb.0:
	pushq	%rbp
	.cfi_def_cfa_offset 16
	.cfi_offset %rbp, -16
	movq	%rsp, %rbp
	.cfi_def_cfa_register %rbp
	callq	__ZNSt3__1eqIPKiPiEEbRKNS_11__wrap_iterIT_EERKNS4_IT0_EE
	xorb	$1, %al
	popq	%rbp
	retq
	.cfi_endproc
                                        ## -- End function
	.p2align	4, 0x90                         ## -- Begin function _ZNSt3__16vectorIiNS_9allocatorIiEEE3endEv
__ZNSt3__16vectorIiNS_9allocatorIiEEE3endEv: ## @_ZNSt3__16vectorIiNS_9allocatorIiEEE3endEv
	.cfi_startproc
## %bb.0:
	pushq	%rbp
	.cfi_def_cfa_offset 16
	.cfi_offset %rbp, -16
	movq	%rsp, %rbp
	.cfi_def_cfa_register %rbp
	movq	8(%rdi), %rdi
	callq	__ZNSt3__16vectorIiNS_9allocatorIiEEE11__make_iterEPi
	popq	%rbp
	retq
	.cfi_endproc
                                        ## -- End function
	.p2align	4, 0x90                         ## -- Begin function _ZNKSt3__111__wrap_iterIPKiEdeEv
__ZNKSt3__111__wrap_iterIPKiEdeEv:      ## @_ZNKSt3__111__wrap_iterIPKiEdeEv
	.cfi_startproc
## %bb.0:
	pushq	%rbp
	.cfi_def_cfa_offset 16
	.cfi_offset %rbp, -16
	movq	%rsp, %rbp
	.cfi_def_cfa_register %rbp
	movq	(%rdi), %rax
	popq	%rbp
	retq
	.cfi_endproc
                                        ## -- End function
	.p2align	4, 0x90                         ## -- Begin function _ZNSt3__111__wrap_iterIPKiEppEv
__ZNSt3__111__wrap_iterIPKiEppEv:       ## @_ZNSt3__111__wrap_iterIPKiEppEv
	.cfi_startproc
## %bb.0:
	pushq	%rbp
	.cfi_def_cfa_offset 16
	.cfi_offset %rbp, -16
	movq	%rsp, %rbp
	.cfi_def_cfa_register %rbp
	addq	$4, (%rdi)
	popq	%rbp
	retq
	.cfi_endproc
                                        ## -- End function
	.p2align	4, 0x90                         ## -- Begin function _ZNKSt3__16vectorINS0_IdNS_9allocatorIdEEEENS1_IS3_EEEixEm
__ZNKSt3__16vectorINS0_IdNS_9allocatorIdEEEENS1_IS3_EEEixEm: ## @_ZNKSt3__16vectorINS0_IdNS_9allocatorIdEEEENS1_IS3_EEEixEm
	.cfi_startproc
## %bb.0:
	pushq	%rbp
	.cfi_def_cfa_offset 16
	.cfi_offset %rbp, -16
	movq	%rsp, %rbp
	.cfi_def_cfa_register %rbp
	leaq	(%rsi,%rsi,2), %rax
	shlq	$3, %rax
	addq	(%rdi), %rax
	popq	%rbp
	retq
	.cfi_endproc
                                        ## -- End function
	.globl	__Z11change_typeiRNSt3__16vectorIiNS_9allocatorIiEEEEi ## -- Begin function _Z11change_typeiRNSt3__16vectorIiNS_9allocatorIiEEEEi
	.p2align	4, 0x90
__Z11change_typeiRNSt3__16vectorIiNS_9allocatorIiEEEEi: ## @_Z11change_typeiRNSt3__16vectorIiNS_9allocatorIiEEEEi
	.cfi_startproc
## %bb.0:
	pushq	%rbp
	.cfi_def_cfa_offset 16
	.cfi_offset %rbp, -16
	movq	%rsp, %rbp
	.cfi_def_cfa_register %rbp
	pushq	%rbx
	pushq	%rax
	.cfi_offset %rbx, -24
	movl	%edx, %ebx
	movq	%rsi, %rax
                                        ## kill: def $edi killed $edi def $rdi
	leal	3(%rdi), %ecx
	testl	%edi, %edi
	cmovnsl	%edi, %ecx
	sarl	$2, %ecx
	movslq	%ecx, %rsi
	movq	%rax, %rdi
	callq	__ZNSt3__16vectorIiNS_9allocatorIiEEEixEm
	movl	(%rax), %ecx
	addl	%ebx, %ebx
	testb	$1, %cl
	je	LBB38_2
## %bb.1:
	movl	$-1, %edx
	cmpl	%ebx, %ecx
	jl	LBB38_4
LBB38_2:
	cmpl	%ebx, %ecx
	jge	LBB38_5
## %bb.3:
	movl	%ecx, %esi
	movl	$1, %edx
	andl	$1, %esi
	jne	LBB38_5
LBB38_4:
	addl	%edx, %ecx
	movl	%ecx, (%rax)
LBB38_5:
	addq	$8, %rsp
	popq	%rbx
	popq	%rbp
	retq
	.cfi_endproc
                                        ## -- End function
	.globl	__Z14cluster_updateRNSt3__16vectorIiNS_9allocatorIiEEEES4_RNS0_IdNS1_IdEEEES7_S7_ ## -- Begin function _Z14cluster_updateRNSt3__16vectorIiNS_9allocatorIiEEEES4_RNS0_IdNS1_IdEEEES7_S7_
	.p2align	4, 0x90
__Z14cluster_updateRNSt3__16vectorIiNS_9allocatorIiEEEES4_RNS0_IdNS1_IdEEEES7_S7_: ## @_Z14cluster_updateRNSt3__16vectorIiNS_9allocatorIiEEEES4_RNS0_IdNS1_IdEEEES7_S7_
Lfunc_begin4:
	.cfi_startproc
	.cfi_personality 155, ___gxx_personality_v0
	.cfi_lsda 16, Lexception4
## %bb.0:
	pushq	%rbp
	.cfi_def_cfa_offset 16
	.cfi_offset %rbp, -16
	movq	%rsp, %rbp
	.cfi_def_cfa_register %rbp
	pushq	%r15
	pushq	%r14
	pushq	%r13
	pushq	%r12
	pushq	%rbx
	subq	$104, %rsp
	.cfi_offset %rbx, -56
	.cfi_offset %r12, -48
	.cfi_offset %r13, -40
	.cfi_offset %r14, -32
	.cfi_offset %r15, -24
	movq	%r8, %r12
	movq	%rcx, %r14
	movq	%rdx, -48(%rbp)                 ## 8-byte Spill
	movq	%rsi, %r13
	movq	%rdi, %rbx
	leaq	-128(%rbp), %r15
	movq	%r15, %rdi
	movq	%rbx, %rsi
	movq	%r13, %rdx
	callq	__ZN10VertexlistC1ERNSt3__16vectorIiNS0_9allocatorIiEEEES5_
	leaq	-104(%rbp), %r8
Ltmp12:
	movq	%r12, 8(%rsp)
	movq	%r14, (%rsp)
	movq	%r15, %rdi
	movq	%rbx, %rsi
	movq	%r13, %rdx
	movq	%r15, %rcx
	movq	-48(%rbp), %r9                  ## 8-byte Reload
	callq	__ZN10Vertexlist13clusterupdateERNSt3__16vectorIiNS0_9allocatorIiEEEES5_S5_S5_RNS1_IdNS2_IdEEEES8_S8_
Ltmp13:
## %bb.1:
	leaq	-128(%rbp), %rdi
	callq	__ZN10VertexlistD1Ev
	addq	$104, %rsp
	popq	%rbx
	popq	%r12
	popq	%r13
	popq	%r14
	popq	%r15
	popq	%rbp
	retq
LBB39_2:
Ltmp14:
	movq	%rax, %rbx
	leaq	-128(%rbp), %rdi
	callq	__ZN10VertexlistD1Ev
	movq	%rbx, %rdi
	callq	__Unwind_Resume
	ud2
Lfunc_end4:
	.cfi_endproc
	.section	__TEXT,__gcc_except_tab
	.p2align	2
GCC_except_table39:
Lexception4:
	.byte	255                             ## @LPStart Encoding = omit
	.byte	255                             ## @TType Encoding = omit
	.byte	1                               ## Call site Encoding = uleb128
	.uleb128 Lcst_end4-Lcst_begin4
Lcst_begin4:
	.uleb128 Lfunc_begin4-Lfunc_begin4      ## >> Call Site 1 <<
	.uleb128 Ltmp12-Lfunc_begin4            ##   Call between Lfunc_begin4 and Ltmp12
	.byte	0                               ##     has no landing pad
	.byte	0                               ##   On action: cleanup
	.uleb128 Ltmp12-Lfunc_begin4            ## >> Call Site 2 <<
	.uleb128 Ltmp13-Ltmp12                  ##   Call between Ltmp12 and Ltmp13
	.uleb128 Ltmp14-Lfunc_begin4            ##     jumps to Ltmp14
	.byte	0                               ##   On action: cleanup
	.uleb128 Ltmp13-Lfunc_begin4            ## >> Call Site 3 <<
	.uleb128 Lfunc_end4-Ltmp13              ##   Call between Ltmp13 and Lfunc_end4
	.byte	0                               ##     has no landing pad
	.byte	0                               ##   On action: cleanup
Lcst_end4:
	.p2align	2
                                        ## -- End function
	.section	__TEXT,__text,regular,pure_instructions
	.globl	__ZN10VertexlistC1ERNSt3__16vectorIiNS0_9allocatorIiEEEES5_ ## -- Begin function _ZN10VertexlistC1ERNSt3__16vectorIiNS0_9allocatorIiEEEES5_
	.weak_def_can_be_hidden	__ZN10VertexlistC1ERNSt3__16vectorIiNS0_9allocatorIiEEEES5_
	.p2align	4, 0x90
__ZN10VertexlistC1ERNSt3__16vectorIiNS0_9allocatorIiEEEES5_: ## @_ZN10VertexlistC1ERNSt3__16vectorIiNS0_9allocatorIiEEEES5_
	.cfi_startproc
## %bb.0:
	pushq	%rbp
	.cfi_def_cfa_offset 16
	.cfi_offset %rbp, -16
	movq	%rsp, %rbp
	.cfi_def_cfa_register %rbp
	callq	__ZN10VertexlistC2ERNSt3__16vectorIiNS0_9allocatorIiEEEES5_
	popq	%rbp
	retq
	.cfi_endproc
                                        ## -- End function
	.section	__TEXT,__literal8,8byte_literals
	.p2align	3                               ## -- Begin function _ZN10Vertexlist13clusterupdateERNSt3__16vectorIiNS0_9allocatorIiEEEES5_S5_S5_RNS1_IdNS2_IdEEEES8_S8_
LCPI41_0:
	.quad	0xbff0000000000000              ## double -1
LCPI41_1:
	.quad	0x3e45798ee2308c3a              ## double 1.0E-8
LCPI41_2:
	.quad	0x3fe0000000000000              ## double 0.5
	.section	__TEXT,__text,regular,pure_instructions
	.globl	__ZN10Vertexlist13clusterupdateERNSt3__16vectorIiNS0_9allocatorIiEEEES5_S5_S5_RNS1_IdNS2_IdEEEES8_S8_
	.weak_def_can_be_hidden	__ZN10Vertexlist13clusterupdateERNSt3__16vectorIiNS0_9allocatorIiEEEES5_S5_S5_RNS1_IdNS2_IdEEEES8_S8_
	.p2align	4, 0x90
__ZN10Vertexlist13clusterupdateERNSt3__16vectorIiNS0_9allocatorIiEEEES5_S5_S5_RNS1_IdNS2_IdEEEES8_S8_: ## @_ZN10Vertexlist13clusterupdateERNSt3__16vectorIiNS0_9allocatorIiEEEES5_S5_S5_RNS1_IdNS2_IdEEEES8_S8_
Lfunc_begin5:
	.cfi_startproc
	.cfi_personality 155, ___gxx_personality_v0
	.cfi_lsda 16, Lexception5
## %bb.0:
	pushq	%rbp
	.cfi_def_cfa_offset 16
	.cfi_offset %rbp, -16
	movq	%rsp, %rbp
	.cfi_def_cfa_register %rbp
	pushq	%r15
	pushq	%r14
	pushq	%r13
	pushq	%r12
	pushq	%rbx
	subq	$248, %rsp
	.cfi_offset %rbx, -56
	.cfi_offset %r12, -48
	.cfi_offset %r13, -40
	.cfi_offset %r14, -32
	.cfi_offset %r15, -24
	movq	%r9, -280(%rbp)                 ## 8-byte Spill
	movq	%r8, %r14
	movq	%rcx, -80(%rbp)                 ## 8-byte Spill
	movq	%rdx, %rbx
	movq	%rdi, %r15
	movq	%rsi, -96(%rbp)                 ## 8-byte Spill
	movq	%rsi, %rdi
	callq	__ZNKSt3__16vectorIiNS_9allocatorIiEEE4sizeEv
	movq	%rax, -104(%rbp)                ## 8-byte Spill
	movl	%eax, %edi
	callq	__ZL4sqrtIiENSt3__19enable_ifIXsr3std11is_integralIT_EE5valueEdE4typeES2_
	movsd	%xmm0, -152(%rbp)               ## 8-byte Spill
	movq	%rbx, -88(%rbp)                 ## 8-byte Spill
	movq	%rbx, %rdi
	callq	__ZNKSt3__16vectorIiNS_9allocatorIiEEE4sizeEv
	movslq	72(%r15), %rcx
	movq	%rax, -144(%rbp)                ## 8-byte Spill
	movslq	%eax, %r15
	imulq	%rcx, %r15
	movl	$0, -184(%rbp)
	leaq	-136(%rbp), %rdi
	leaq	-184(%rbp), %rdx
	movq	%r15, %rsi
	callq	__ZNSt3__16vectorIiNS_9allocatorIiEEEC1EmRKi
	movl	$-1, -256(%rbp)
Ltmp15:
	leaq	-184(%rbp), %rdi
	leaq	-256(%rbp), %rdx
	movq	%r15, %rsi
	callq	__ZNSt3__16vectorIiNS_9allocatorIiEEEC1EmRKi
Ltmp16:
## %bb.1:
	movq	%r14, -264(%rbp)                ## 8-byte Spill
	testl	%r15d, %r15d
	movq	%r15, -160(%rbp)                ## 8-byte Spill
	jle	LBB41_36
## %bb.2:
	movq	-104(%rbp), %rax                ## 8-byte Reload
	addl	%eax, %eax
	movl	%eax, -64(%rbp)                 ## 4-byte Spill
	xorl	%ebx, %ebx
	leaq	-136(%rbp), %r14
	xorl	%r12d, %r12d
	jmp	LBB41_5
	.p2align	4, 0x90
LBB41_3:                                ##   in Loop: Header=BB41_5 Depth=1
	movq	-160(%rbp), %r15                ## 8-byte Reload
	movl	-72(%rbp), %r12d                ## 4-byte Reload
	movq	-112(%rbp), %rbx                ## 8-byte Reload
	leaq	-136(%rbp), %r14
LBB41_4:                                ##   in Loop: Header=BB41_5 Depth=1
	addq	$4, %rbx
	cmpq	%r15, %rbx
	jge	LBB41_37
LBB41_5:                                ## =>This Loop Header: Depth=1
                                        ##     Child Loop BB41_9 Depth 2
                                        ##       Child Loop BB41_25 Depth 3
                                        ##       Child Loop BB41_19 Depth 3
	movq	-80(%rbp), %rdi                 ## 8-byte Reload
	movq	%rbx, %rsi
	callq	__ZNSt3__16vectorIiNS_9allocatorIiEEEixEm
	cmpl	$0, (%rax)
	js	LBB41_4
## %bb.6:                               ##   in Loop: Header=BB41_5 Depth=1
	movq	%r14, %rdi
	movq	%rbx, %rsi
	callq	__ZNSt3__16vectorIiNS_9allocatorIiEEEixEm
	cmpl	$0, (%rax)
	jg	LBB41_4
## %bb.7:                               ##   in Loop: Header=BB41_5 Depth=1
	incl	%r12d
	movl	%r12d, -72(%rbp)                ## 4-byte Spill
	movl	$0, -48(%rbp)                   ## 4-byte Folded Spill
	movl	%ebx, %r15d
	movq	%rbx, -112(%rbp)                ## 8-byte Spill
	movl	%ebx, %r13d
	jmp	LBB41_9
	.p2align	4, 0x90
LBB41_8:                                ##   in Loop: Header=BB41_9 Depth=2
	xorl	%eax, %eax
	testb	%al, %al
	je	LBB41_16
LBB41_9:                                ##   Parent Loop BB41_5 Depth=1
                                        ## =>  This Loop Header: Depth=2
                                        ##       Child Loop BB41_25 Depth 3
                                        ##       Child Loop BB41_19 Depth 3
	movslq	%r15d, %r14
	leaq	-136(%rbp), %r12
	movq	%r12, %rdi
	movq	%r14, %rsi
	callq	__ZNSt3__16vectorIiNS_9allocatorIiEEEixEm
	movl	-72(%rbp), %ecx                 ## 4-byte Reload
	movl	%ecx, (%rax)
	leal	3(%r14), %eax
	testl	%r14d, %r14d
	cmovnsl	%r15d, %eax
	sarl	$2, %eax
	movslq	%eax, %rsi
	movq	-88(%rbp), %rdi                 ## 8-byte Reload
	callq	__ZNSt3__16vectorIiNS_9allocatorIiEEEixEm
	movl	-64(%rbp), %ecx                 ## 4-byte Reload
	cmpl	%ecx, (%rax)
	jl	LBB41_12
## %bb.10:                              ##   in Loop: Header=BB41_9 Depth=2
	movl	%r15d, %ebx
	xorl	$1, %ebx
	movslq	%ebx, %rsi
	movq	%r12, %rdi
	callq	__ZNSt3__16vectorIiNS_9allocatorIiEEEixEm
	cmpl	$0, (%rax)
	jne	LBB41_12
## %bb.11:                              ##   in Loop: Header=BB41_9 Depth=2
	movl	-48(%rbp), %eax                 ## 4-byte Reload
	incl	%eax
	movl	%eax, -48(%rbp)                 ## 4-byte Spill
	movslq	%eax, %rsi
	leaq	-184(%rbp), %rdi
	callq	__ZNSt3__16vectorIiNS_9allocatorIiEEEixEm
	movl	%ebx, (%rax)
	.p2align	4, 0x90
LBB41_12:                               ##   in Loop: Header=BB41_9 Depth=2
	movq	-80(%rbp), %rdi                 ## 8-byte Reload
	movq	%r14, %rsi
	callq	__ZNSt3__16vectorIiNS_9allocatorIiEEEixEm
	movslq	(%rax), %rbx
	leaq	-136(%rbp), %r14
	movq	%r14, %rdi
	movq	%rbx, %rsi
	callq	__ZNSt3__16vectorIiNS_9allocatorIiEEEixEm
	leal	3(%rbx), %ecx
	testq	%rbx, %rbx
	movl	-72(%rbp), %edx                 ## 4-byte Reload
	movl	%edx, (%rax)
	cmovnsl	%ebx, %ecx
	sarl	$2, %ecx
	movslq	%ecx, %rsi
	movq	-88(%rbp), %rdi                 ## 8-byte Reload
	callq	__ZNSt3__16vectorIiNS_9allocatorIiEEEixEm
	movl	-64(%rbp), %ecx                 ## 4-byte Reload
	cmpl	%ecx, (%rax)
	jl	LBB41_8
## %bb.13:                              ##   in Loop: Header=BB41_9 Depth=2
	movl	%ebx, %r15d
	xorl	$2, %r15d
	xorq	$1, %rbx
	movq	%r14, %rdi
	movq	%rbx, %rsi
	callq	__ZNSt3__16vectorIiNS_9allocatorIiEEEixEm
	cmpl	$0, (%rax)
	jne	LBB41_15
## %bb.14:                              ##   in Loop: Header=BB41_9 Depth=2
	movl	-48(%rbp), %eax                 ## 4-byte Reload
	incl	%eax
	movl	%eax, -48(%rbp)                 ## 4-byte Spill
	movslq	%eax, %rsi
	leaq	-184(%rbp), %rdi
	callq	__ZNSt3__16vectorIiNS_9allocatorIiEEEixEm
	movl	%ebx, (%rax)
LBB41_15:                               ##   in Loop: Header=BB41_9 Depth=2
	cmpl	%r13d, %r15d
	setne	%al
	testb	%al, %al
	jne	LBB41_9
LBB41_16:                               ##   in Loop: Header=BB41_9 Depth=2
	leal	3(%r13), %eax
	testl	%r13d, %r13d
	cmovnsl	%r13d, %eax
	sarl	$2, %eax
	movslq	%eax, %rsi
	movq	-88(%rbp), %rdi                 ## 8-byte Reload
	callq	__ZNSt3__16vectorIiNS_9allocatorIiEEEixEm
	movl	-64(%rbp), %ecx                 ## 4-byte Reload
	cmpl	%ecx, (%rax)
	jge	LBB41_22
LBB41_17:                               ##   in Loop: Header=BB41_9 Depth=2
	movb	$1, %r14b
	movl	-48(%rbp), %eax                 ## 4-byte Reload
	testl	%eax, %eax
	je	LBB41_34
## %bb.18:                              ##   in Loop: Header=BB41_9 Depth=2
	movslq	%eax, %rbx
	decl	%eax
	movl	%eax, %r12d
	.p2align	4, 0x90
LBB41_19:                               ##   Parent Loop BB41_5 Depth=1
                                        ##     Parent Loop BB41_9 Depth=2
                                        ## =>    This Inner Loop Header: Depth=3
	leaq	-184(%rbp), %rdi
	movq	%rbx, %rsi
	callq	__ZNSt3__16vectorIiNS_9allocatorIiEEEixEm
	movl	(%rax), %r15d
	movslq	%r15d, %rsi
	leaq	-136(%rbp), %rdi
	callq	__ZNSt3__16vectorIiNS_9allocatorIiEEEixEm
	cmpl	$0, (%rax)
	jle	LBB41_35
## %bb.20:                              ##   in Loop: Header=BB41_19 Depth=3
	decq	%rbx
	addl	$-1, %r12d
	jb	LBB41_19
## %bb.21:                              ##   in Loop: Header=BB41_9 Depth=2
	movl	$0, -48(%rbp)                   ## 4-byte Folded Spill
	movl	%r15d, %r13d
	testb	%r14b, %r14b
	je	LBB41_9
	jmp	LBB41_3
LBB41_22:                               ##   in Loop: Header=BB41_9 Depth=2
	movl	%r13d, %r15d
	xorl	$2, %r15d
	jmp	LBB41_25
	.p2align	4, 0x90
LBB41_23:                               ##   in Loop: Header=BB41_25 Depth=3
	xorl	%r14d, %r14d
LBB41_24:                               ##   in Loop: Header=BB41_25 Depth=3
	testb	%r14b, %r14b
	je	LBB41_17
LBB41_25:                               ##   Parent Loop BB41_5 Depth=1
                                        ##     Parent Loop BB41_9 Depth=2
                                        ## =>    This Inner Loop Header: Depth=3
	movslq	%r15d, %rbx
	leaq	-136(%rbp), %r14
	movq	%r14, %rdi
	movq	%rbx, %rsi
	callq	__ZNSt3__16vectorIiNS_9allocatorIiEEEixEm
	movl	-72(%rbp), %ecx                 ## 4-byte Reload
	movl	%ecx, (%rax)
	leal	3(%rbx), %eax
	testl	%ebx, %ebx
	cmovnsl	%r15d, %eax
	sarl	$2, %eax
	movslq	%eax, %rsi
	movq	-88(%rbp), %rdi                 ## 8-byte Reload
	callq	__ZNSt3__16vectorIiNS_9allocatorIiEEEixEm
	movl	-64(%rbp), %ecx                 ## 4-byte Reload
	cmpl	%ecx, (%rax)
	jl	LBB41_29
## %bb.26:                              ##   in Loop: Header=BB41_25 Depth=3
	movq	%r14, %rdi
	movl	%r15d, %r14d
	xorl	$1, %r14d
	movslq	%r14d, %rsi
	callq	__ZNSt3__16vectorIiNS_9allocatorIiEEEixEm
	cmpl	$0, (%rax)
	jne	LBB41_28
## %bb.27:                              ##   in Loop: Header=BB41_25 Depth=3
	movl	-48(%rbp), %eax                 ## 4-byte Reload
	incl	%eax
	movl	%eax, -48(%rbp)                 ## 4-byte Spill
	movslq	%eax, %rsi
	leaq	-184(%rbp), %rdi
	callq	__ZNSt3__16vectorIiNS_9allocatorIiEEEixEm
	movl	%r14d, (%rax)
LBB41_28:                               ##   in Loop: Header=BB41_25 Depth=3
	leaq	-136(%rbp), %r14
LBB41_29:                               ##   in Loop: Header=BB41_25 Depth=3
	movq	-80(%rbp), %rdi                 ## 8-byte Reload
	movq	%rbx, %rsi
	callq	__ZNSt3__16vectorIiNS_9allocatorIiEEEixEm
	movslq	(%rax), %rbx
	cmpl	%r13d, %ebx
	je	LBB41_23
## %bb.30:                              ##   in Loop: Header=BB41_25 Depth=3
	movq	%r14, %rdi
	movq	%rbx, %rsi
	callq	__ZNSt3__16vectorIiNS_9allocatorIiEEEixEm
	movl	-72(%rbp), %ecx                 ## 4-byte Reload
	movl	%ecx, (%rax)
	leal	3(%rbx), %eax
	testl	%ebx, %ebx
	cmovnsl	%ebx, %eax
	sarl	$2, %eax
	movslq	%eax, %rsi
	movq	-88(%rbp), %rdi                 ## 8-byte Reload
	callq	__ZNSt3__16vectorIiNS_9allocatorIiEEEixEm
	movl	-64(%rbp), %ecx                 ## 4-byte Reload
	cmpl	%ecx, (%rax)
	jl	LBB41_23
## %bb.32:                              ##   in Loop: Header=BB41_25 Depth=3
	movl	%ebx, %r15d
	xorl	$2, %r15d
	xorq	$1, %rbx
	movq	%r14, %rdi
	movq	%rbx, %rsi
	callq	__ZNSt3__16vectorIiNS_9allocatorIiEEEixEm
	movb	$1, %r14b
	cmpl	$0, (%rax)
	jne	LBB41_24
## %bb.33:                              ##   in Loop: Header=BB41_25 Depth=3
	movl	-48(%rbp), %eax                 ## 4-byte Reload
	incl	%eax
	movl	%eax, -48(%rbp)                 ## 4-byte Spill
	movslq	%eax, %rsi
	leaq	-184(%rbp), %rdi
	callq	__ZNSt3__16vectorIiNS_9allocatorIiEEEixEm
	movl	%ebx, (%rax)
	jmp	LBB41_24
LBB41_34:                               ##   in Loop: Header=BB41_9 Depth=2
	movl	$0, -48(%rbp)                   ## 4-byte Folded Spill
	testb	%r14b, %r14b
	je	LBB41_9
	jmp	LBB41_3
LBB41_35:                               ##   in Loop: Header=BB41_9 Depth=2
	movl	%r12d, -48(%rbp)                ## 4-byte Spill
	movl	%r15d, %r13d
	xorl	%r14d, %r14d
	testb	%r14b, %r14b
	je	LBB41_9
	jmp	LBB41_3
LBB41_36:
	xorl	%r12d, %r12d
LBB41_37:
	movslq	%r12d, %rbx
	movl	$0, -232(%rbp)
Ltmp18:
	leaq	-256(%rbp), %rdi
	leaq	-232(%rbp), %rdx
	movq	%rbx, %rsi
	callq	__ZNSt3__16vectorIiNS_9allocatorIiEEEC1EmRKi
Ltmp19:
## %bb.38:
	movabsq	$4607182418800017408, %rax      ## imm = 0x3FF0000000000000
	movq	%rax, -288(%rbp)
Ltmp21:
	leaq	-208(%rbp), %rdi
	leaq	-288(%rbp), %rdx
	movl	$2, %esi
	callq	__ZNSt3__16vectorIdNS_9allocatorIdEEEC1EmRKd
Ltmp22:
## %bb.39:
Ltmp24:
	movl	%r12d, -72(%rbp)                ## 4-byte Spill
	leaq	-232(%rbp), %rdi
	leaq	-208(%rbp), %rdx
	movq	%rbx, %rsi
	callq	__ZNSt3__16vectorINS0_IdNS_9allocatorIdEEEENS1_IS3_EEEC1EmRKS3_
Ltmp25:
## %bb.40:
	leaq	-208(%rbp), %rdi
	callq	__ZNSt3__16vectorIdNS_9allocatorIdEEED1Ev
	movq	-144(%rbp), %rcx                ## 8-byte Reload
	testl	%ecx, %ecx
	jle	LBB41_57
## %bb.41:
	cvttsd2si	-152(%rbp), %r12d       ## 8-byte Folded Reload
	movq	-104(%rbp), %rax                ## 8-byte Reload
	leal	(%rax,%rax), %r14d
	movl	%ecx, %r13d
	xorl	%r15d, %r15d
	movl	%r14d, -152(%rbp)               ## 4-byte Spill
	movq	%r13, -144(%rbp)                ## 8-byte Spill
	jmp	LBB41_46
LBB41_42:                               ##   in Loop: Header=BB41_46 Depth=1
	movq	16(%rbp), %rdi
	movq	-48(%rbp), %r12                 ## 8-byte Reload
	movq	%r12, %rsi
	callq	__ZNSt3__16vectorIdNS_9allocatorIdEEEixEm
	movsd	-64(%rbp), %xmm0                ## 8-byte Reload
                                        ## xmm0 = mem[0],zero
	addsd	%xmm0, %xmm0
	subsd	(%rax), %xmm0
	movsd	%xmm0, -64(%rbp)                ## 8-byte Spill
	movq	24(%rbp), %rdi
	movq	%r12, %rsi
	callq	__ZNSt3__16vectorIdNS_9allocatorIdEEEixEm
	movsd	-64(%rbp), %xmm0                ## 8-byte Reload
                                        ## xmm0 = mem[0],zero
	addsd	(%rax), %xmm0
	movsd	%xmm0, -64(%rbp)                ## 8-byte Spill
	movq	-112(%rbp), %r14                ## 8-byte Reload
	decq	%r14
	leaq	-232(%rbp), %rbx
	movq	%rbx, %rdi
	movq	%r14, %rsi
	callq	__ZNSt3__16vectorINS0_IdNS_9allocatorIdEEEENS1_IS3_EEEixEm
	movq	%rax, %rdi
	xorl	%esi, %esi
	callq	__ZNSt3__16vectorIdNS_9allocatorIdEEEixEm
	movsd	-64(%rbp), %xmm0                ## 8-byte Reload
                                        ## xmm0 = mem[0],zero
	mulsd	(%rax), %xmm0
	movsd	%xmm0, (%rax)
	movq	24(%rbp), %rdi
	movq	%r12, %rsi
	callq	__ZNSt3__16vectorIdNS_9allocatorIdEEEixEm
	movsd	(%rax), %xmm0                   ## xmm0 = mem[0],zero
LBB41_43:                               ##   in Loop: Header=BB41_46 Depth=1
	movsd	%xmm0, -64(%rbp)                ## 8-byte Spill
	movq	%rbx, %rdi
	movq	%r14, %rsi
	callq	__ZNSt3__16vectorINS0_IdNS_9allocatorIdEEEENS1_IS3_EEEixEm
	movl	$1, %esi
	movq	%rax, %rdi
	callq	__ZNSt3__16vectorIdNS_9allocatorIdEEEixEm
	movsd	-64(%rbp), %xmm0                ## 8-byte Reload
                                        ## xmm0 = mem[0],zero
	mulsd	(%rax), %xmm0
	movsd	%xmm0, (%rax)
LBB41_44:                               ##   in Loop: Header=BB41_46 Depth=1
	movl	%r13d, %r12d
	movl	-152(%rbp), %r14d               ## 4-byte Reload
	movq	-144(%rbp), %r13                ## 8-byte Reload
LBB41_45:                               ##   in Loop: Header=BB41_46 Depth=1
	incq	%r15
	cmpq	%r13, %r15
	je	LBB41_57
LBB41_46:                               ## =>This Inner Loop Header: Depth=1
	movq	-88(%rbp), %rdi                 ## 8-byte Reload
	movq	%r15, %rsi
	callq	__ZNSt3__16vectorIiNS_9allocatorIiEEEixEm
	movl	(%rax), %ebx
	cmpl	$-1, %ebx
	je	LBB41_45
## %bb.47:                              ##   in Loop: Header=BB41_46 Depth=1
	cmpl	%r14d, %ebx
	jge	LBB41_50
## %bb.48:                              ##   in Loop: Header=BB41_46 Depth=1
	movl	%ebx, %edi
	movl	%r12d, %esi
	movl	%r12d, %edx
	callq	__Z16operator_to_bondiii
	movq	%rax, -208(%rbp)
	testb	$1, %bl
	je	LBB41_45
## %bb.49:                              ##   in Loop: Header=BB41_46 Depth=1
	leaq	-208(%rbp), %rdi
	xorl	%esi, %esi
	callq	__ZNSt3__15arrayIiLm2EEixEm
	movslq	(%rax), %rsi
	movq	-96(%rbp), %rdi                 ## 8-byte Reload
	callq	__ZNSt3__16vectorIiNS_9allocatorIiEEEixEm
	negl	(%rax)
	jmp	LBB41_45
	.p2align	4, 0x90
LBB41_50:                               ##   in Loop: Header=BB41_46 Depth=1
	movl	%ebx, %edi
	movl	%r12d, %esi
	movl	%r12d, %edx
	callq	__Z16operator_to_bondiii
	movq	%rax, -208(%rbp)
	leaq	-208(%rbp), %rbx
	movq	%rbx, %rdi
	xorl	%esi, %esi
	callq	__ZNSt3__15arrayIiLm2EEixEm
	movl	(%rax), %r14d
	movl	$1, %esi
	movq	%rbx, %rdi
	callq	__ZNSt3__15arrayIiLm2EEixEm
	movl	(%rax), %ebx
Ltmp27:
	movl	%r14d, %edi
	movl	%ebx, %esi
	movl	%r12d, %edx
	movl	%r12d, %r13d
	movl	%r12d, %ecx
	callq	__Z7vec_miniiii
Ltmp28:
## %bb.51:                              ##   in Loop: Header=BB41_46 Depth=1
	movslq	%r14d, %r14
	movslq	%ebx, %r12
	movslq	%eax, %rsi
	movq	-280(%rbp), %rdi                ## 8-byte Reload
	movq	%rsi, -48(%rbp)                 ## 8-byte Spill
	callq	__ZNSt3__16vectorIdNS_9allocatorIdEEEixEm
	movsd	(%rax), %xmm0                   ## xmm0 = mem[0],zero
	movsd	%xmm0, -64(%rbp)                ## 8-byte Spill
	leal	(,%r15,4), %esi
	leaq	-136(%rbp), %rdi
	callq	__ZNSt3__16vectorIiNS_9allocatorIiEEEixEm
	movslq	(%rax), %rax
	movq	%rax, -112(%rbp)                ## 8-byte Spill
	movq	-96(%rbp), %rdi                 ## 8-byte Reload
	movq	%r14, %rsi
	callq	__ZNSt3__16vectorIiNS_9allocatorIiEEEixEm
	movl	(%rax), %ebx
	cmpl	$1, %ebx
	je	LBB41_55
## %bb.52:                              ##   in Loop: Header=BB41_46 Depth=1
	cmpl	$-1, %ebx
	jne	LBB41_44
## %bb.53:                              ##   in Loop: Header=BB41_46 Depth=1
	movq	-96(%rbp), %rdi                 ## 8-byte Reload
	movq	%r12, %rsi
	callq	__ZNSt3__16vectorIiNS_9allocatorIiEEEixEm
	cmpl	$-1, (%rax)
	je	LBB41_42
## %bb.54:                              ##   in Loop: Header=BB41_46 Depth=1
	cmpl	$1, %ebx
	jne	LBB41_44
LBB41_55:                               ##   in Loop: Header=BB41_46 Depth=1
	movq	-96(%rbp), %rdi                 ## 8-byte Reload
	movq	%r12, %rsi
	callq	__ZNSt3__16vectorIiNS_9allocatorIiEEEixEm
	cmpl	$1, (%rax)
	jne	LBB41_44
## %bb.56:                              ##   in Loop: Header=BB41_46 Depth=1
	movq	24(%rbp), %rdi
	movq	-48(%rbp), %r12                 ## 8-byte Reload
	movq	%r12, %rsi
	callq	__ZNSt3__16vectorIdNS_9allocatorIdEEEixEm
	movsd	(%rax), %xmm0                   ## xmm0 = mem[0],zero
	movsd	%xmm0, -272(%rbp)               ## 8-byte Spill
	movq	-112(%rbp), %rax                ## 8-byte Reload
	decl	%eax
	movslq	%eax, %r14
	leaq	-232(%rbp), %rbx
	movq	%rbx, %rdi
	movq	%r14, %rsi
	callq	__ZNSt3__16vectorINS0_IdNS_9allocatorIdEEEENS1_IS3_EEEixEm
	movq	%rax, %rdi
	xorl	%esi, %esi
	callq	__ZNSt3__16vectorIdNS_9allocatorIdEEEixEm
	movsd	-272(%rbp), %xmm0               ## 8-byte Reload
                                        ## xmm0 = mem[0],zero
	mulsd	(%rax), %xmm0
	movsd	%xmm0, (%rax)
	movq	16(%rbp), %rdi
	movq	%r12, %rsi
	callq	__ZNSt3__16vectorIdNS_9allocatorIdEEEixEm
	movsd	-64(%rbp), %xmm0                ## 8-byte Reload
                                        ## xmm0 = mem[0],zero
	addsd	%xmm0, %xmm0
	subsd	(%rax), %xmm0
	movsd	%xmm0, -64(%rbp)                ## 8-byte Spill
	movq	24(%rbp), %rdi
	movq	%r12, %rsi
	callq	__ZNSt3__16vectorIdNS_9allocatorIdEEEixEm
	movsd	-64(%rbp), %xmm0                ## 8-byte Reload
                                        ## xmm0 = mem[0],zero
	addsd	(%rax), %xmm0
	jmp	LBB41_43
LBB41_57:
	movl	-72(%rbp), %eax                 ## 4-byte Reload
	testl	%eax, %eax
	jle	LBB41_65
## %bb.58:
	movl	%eax, %r12d
	xorl	%r14d, %r14d
	leaq	-232(%rbp), %r15
	leaq	-256(%rbp), %r13
	jmp	LBB41_60
	.p2align	4, 0x90
LBB41_59:                               ##   in Loop: Header=BB41_60 Depth=1
	incq	%r14
	cmpq	%r14, %r12
	je	LBB41_65
LBB41_60:                               ## =>This Inner Loop Header: Depth=1
	movq	%r15, %rdi
	movq	%r14, %rsi
	callq	__ZNSt3__16vectorINS0_IdNS_9allocatorIdEEEENS1_IS3_EEEixEm
	movq	%rax, %rbx
	movl	$1, %esi
	movq	%rax, %rdi
	callq	__ZNSt3__16vectorIdNS_9allocatorIdEEEixEm
	movsd	(%rax), %xmm2                   ## xmm2 = mem[0],zero
	xorpd	%xmm1, %xmm1
	xorpd	%xmm0, %xmm0
	movapd	%xmm0, -64(%rbp)                ## 16-byte Spill
	ucomisd	%xmm1, %xmm2
	jne	LBB41_61
	jnp	LBB41_62
LBB41_61:                               ##   in Loop: Header=BB41_60 Depth=1
	movq	%rbx, %rdi
	xorl	%esi, %esi
	movsd	%xmm2, -64(%rbp)                ## 8-byte Spill
	callq	__ZNSt3__16vectorIdNS_9allocatorIdEEEixEm
	movsd	(%rax), %xmm0                   ## xmm0 = mem[0],zero
	divsd	-64(%rbp), %xmm0                ## 8-byte Folded Reload
	movapd	%xmm0, -64(%rbp)                ## 16-byte Spill
LBB41_62:                               ##   in Loop: Header=BB41_60 Depth=1
Ltmp30:
	callq	__ZNSt3__125uniform_real_distributionIdEclINS_23mersenne_twister_engineIjLm32ELm624ELm397ELm31ELj2567483615ELm11ELj4294967295ELm7ELj2636928640ELm15ELj4022730752ELm18ELj1812433253EEEEEdRT_
	movsd	%xmm0, -72(%rbp)                ## 8-byte Spill
Ltmp31:
## %bb.63:                              ##   in Loop: Header=BB41_60 Depth=1
	movapd	-64(%rbp), %xmm0                ## 16-byte Reload
	addsd	LCPI41_0(%rip), %xmm0
	callq	__ZL3absd
	cmpltsd	LCPI41_1(%rip), %xmm0
	movapd	%xmm0, %xmm1
	movsd	LCPI41_2(%rip), %xmm2           ## xmm2 = mem[0],zero
	andpd	%xmm2, %xmm1
	andnpd	-64(%rbp), %xmm0                ## 16-byte Folded Reload
	orpd	%xmm1, %xmm0
	ucomisd	-72(%rbp), %xmm0                ## 8-byte Folded Reload
	jbe	LBB41_59
## %bb.64:                              ##   in Loop: Header=BB41_60 Depth=1
	movq	%r13, %rdi
	movq	%r14, %rsi
	callq	__ZNSt3__16vectorIiNS_9allocatorIiEEEixEm
	movl	$1, (%rax)
	jmp	LBB41_59
LBB41_65:
	cmpl	$0, -160(%rbp)                  ## 4-byte Folded Reload
	jle	LBB41_77
## %bb.66:
	movq	-104(%rbp), %rax                ## 8-byte Reload
	leal	(%rax,%rax), %r13d
	xorl	%r14d, %r14d
	leaq	-256(%rbp), %r12
	jmp	LBB41_70
LBB41_67:                               ##   in Loop: Header=BB41_70 Depth=1
	movl	$-1, (%r15)
	leaq	1(%r14), %rsi
	movq	-80(%rbp), %rdi                 ## 8-byte Reload
LBB41_68:                               ##   in Loop: Header=BB41_70 Depth=1
	callq	__ZNSt3__16vectorIiNS_9allocatorIiEEEixEm
	movl	$-1, (%rax)
LBB41_69:                               ##   in Loop: Header=BB41_70 Depth=1
	addq	$2, %r14
	cmpl	%r14d, -160(%rbp)               ## 4-byte Folded Reload
	jle	LBB41_77
LBB41_70:                               ## =>This Inner Loop Header: Depth=1
	movq	-80(%rbp), %rdi                 ## 8-byte Reload
	movq	%r14, %rsi
	callq	__ZNSt3__16vectorIiNS_9allocatorIiEEEixEm
	cmpl	$0, (%rax)
	js	LBB41_69
## %bb.71:                              ##   in Loop: Header=BB41_70 Depth=1
	movq	%rax, %r15
	movl	%r14d, %esi
	shrl	$2, %esi
	movq	-88(%rbp), %rdi                 ## 8-byte Reload
	callq	__ZNSt3__16vectorIiNS_9allocatorIiEEEixEm
	movl	(%rax), %ebx
	leaq	-136(%rbp), %rdi
	movq	%r14, %rsi
	callq	__ZNSt3__16vectorIiNS_9allocatorIiEEEixEm
	movslq	(%rax), %rsi
	decq	%rsi
	movq	%r12, %rdi
	callq	__ZNSt3__16vectorIiNS_9allocatorIiEEEixEm
	movl	(%rax), %eax
	cmpl	%r13d, %ebx
	jge	LBB41_74
## %bb.72:                              ##   in Loop: Header=BB41_70 Depth=1
	cmpl	$1, %eax
	jne	LBB41_76
## %bb.73:                              ##   in Loop: Header=BB41_70 Depth=1
	movl	%r14d, %edi
	movq	-88(%rbp), %rsi                 ## 8-byte Reload
	movq	-104(%rbp), %rdx                ## 8-byte Reload
                                        ## kill: def $edx killed $edx killed $rdx
	callq	__Z11change_typeiRNSt3__16vectorIiNS_9allocatorIiEEEEi
	movq	-80(%rbp), %rdi                 ## 8-byte Reload
	movq	%r14, %rsi
	jmp	LBB41_68
	.p2align	4, 0x90
LBB41_74:                               ##   in Loop: Header=BB41_70 Depth=1
	cmpl	$1, %eax
	je	LBB41_67
## %bb.75:                              ##   in Loop: Header=BB41_70 Depth=1
	movl	$-2, (%r15)
	leaq	1(%r14), %rsi
	movq	-80(%rbp), %rdi                 ## 8-byte Reload
	callq	__ZNSt3__16vectorIiNS_9allocatorIiEEEixEm
	movl	$-2, (%rax)
	jmp	LBB41_69
LBB41_76:                               ##   in Loop: Header=BB41_70 Depth=1
	movl	$-2, (%r15)
	jmp	LBB41_69
LBB41_77:
	movq	-104(%rbp), %rax                ## 8-byte Reload
	testl	%eax, %eax
	movq	-264(%rbp), %r15                ## 8-byte Reload
	jle	LBB41_85
## %bb.78:
	movl	%eax, %r14d
	xorl	%ebx, %ebx
	jmp	LBB41_81
	.p2align	4, 0x90
LBB41_79:                               ##   in Loop: Header=BB41_81 Depth=1
	movq	-96(%rbp), %rdi                 ## 8-byte Reload
	movq	%rbx, %rsi
	callq	__ZNSt3__16vectorIiNS_9allocatorIiEEEixEm
	negl	(%rax)
LBB41_80:                               ##   in Loop: Header=BB41_81 Depth=1
	incq	%rbx
	cmpq	%rbx, %r14
	je	LBB41_85
LBB41_81:                               ## =>This Inner Loop Header: Depth=1
	movq	%r15, %rdi
	movq	%rbx, %rsi
	callq	__ZNSt3__16vectorIiNS_9allocatorIiEEEixEm
	movslq	(%rax), %rsi
	cmpq	$-1, %rsi
	je	LBB41_83
## %bb.82:                              ##   in Loop: Header=BB41_81 Depth=1
	movq	-80(%rbp), %rdi                 ## 8-byte Reload
	callq	__ZNSt3__16vectorIiNS_9allocatorIiEEEixEm
	cmpl	$-1, (%rax)
	jne	LBB41_80
	jmp	LBB41_79
	.p2align	4, 0x90
LBB41_83:                               ##   in Loop: Header=BB41_81 Depth=1
Ltmp33:
	callq	__ZNSt3__125uniform_real_distributionIdEclINS_23mersenne_twister_engineIjLm32ELm624ELm397ELm31ELj2567483615ELm11ELj4294967295ELm7ELj2636928640ELm15ELj4022730752ELm18ELj1812433253EEEEEdRT_
Ltmp34:
## %bb.84:                              ##   in Loop: Header=BB41_81 Depth=1
	movsd	LCPI41_2(%rip), %xmm1           ## xmm1 = mem[0],zero
	ucomisd	%xmm0, %xmm1
	ja	LBB41_79
	jmp	LBB41_80
LBB41_85:
	leaq	-232(%rbp), %rdi
	callq	__ZNSt3__16vectorINS0_IdNS_9allocatorIdEEEENS1_IS3_EEED1Ev
	leaq	-256(%rbp), %rdi
	callq	__ZNSt3__16vectorIiNS_9allocatorIiEEED1Ev
	leaq	-184(%rbp), %rdi
	callq	__ZNSt3__16vectorIiNS_9allocatorIiEEED1Ev
	leaq	-136(%rbp), %rdi
	callq	__ZNSt3__16vectorIiNS_9allocatorIiEEED1Ev
	addq	$248, %rsp
	popq	%rbx
	popq	%r12
	popq	%r13
	popq	%r14
	popq	%r15
	popq	%rbp
	retq
LBB41_86:
Ltmp26:
	movq	%rax, %rbx
	leaq	-208(%rbp), %rdi
	callq	__ZNSt3__16vectorIdNS_9allocatorIdEEED1Ev
	jmp	LBB41_94
LBB41_87:
Ltmp23:
	movq	%rax, %rbx
	jmp	LBB41_94
LBB41_88:
Ltmp20:
	movq	%rax, %rbx
	jmp	LBB41_95
LBB41_89:
Ltmp17:
	movq	%rax, %rbx
	jmp	LBB41_96
LBB41_90:
Ltmp29:
	jmp	LBB41_93
LBB41_91:
Ltmp35:
	jmp	LBB41_93
LBB41_92:
Ltmp32:
LBB41_93:
	movq	%rax, %rbx
	leaq	-232(%rbp), %rdi
	callq	__ZNSt3__16vectorINS0_IdNS_9allocatorIdEEEENS1_IS3_EEED1Ev
LBB41_94:
	leaq	-256(%rbp), %rdi
	callq	__ZNSt3__16vectorIiNS_9allocatorIiEEED1Ev
LBB41_95:
	leaq	-184(%rbp), %rdi
	callq	__ZNSt3__16vectorIiNS_9allocatorIiEEED1Ev
LBB41_96:
	leaq	-136(%rbp), %rdi
	callq	__ZNSt3__16vectorIiNS_9allocatorIiEEED1Ev
	movq	%rbx, %rdi
	callq	__Unwind_Resume
	ud2
Lfunc_end5:
	.cfi_endproc
	.section	__TEXT,__gcc_except_tab
	.p2align	2
GCC_except_table41:
Lexception5:
	.byte	255                             ## @LPStart Encoding = omit
	.byte	255                             ## @TType Encoding = omit
	.byte	1                               ## Call site Encoding = uleb128
	.uleb128 Lcst_end5-Lcst_begin5
Lcst_begin5:
	.uleb128 Lfunc_begin5-Lfunc_begin5      ## >> Call Site 1 <<
	.uleb128 Ltmp15-Lfunc_begin5            ##   Call between Lfunc_begin5 and Ltmp15
	.byte	0                               ##     has no landing pad
	.byte	0                               ##   On action: cleanup
	.uleb128 Ltmp15-Lfunc_begin5            ## >> Call Site 2 <<
	.uleb128 Ltmp16-Ltmp15                  ##   Call between Ltmp15 and Ltmp16
	.uleb128 Ltmp17-Lfunc_begin5            ##     jumps to Ltmp17
	.byte	0                               ##   On action: cleanup
	.uleb128 Ltmp18-Lfunc_begin5            ## >> Call Site 3 <<
	.uleb128 Ltmp19-Ltmp18                  ##   Call between Ltmp18 and Ltmp19
	.uleb128 Ltmp20-Lfunc_begin5            ##     jumps to Ltmp20
	.byte	0                               ##   On action: cleanup
	.uleb128 Ltmp21-Lfunc_begin5            ## >> Call Site 4 <<
	.uleb128 Ltmp22-Ltmp21                  ##   Call between Ltmp21 and Ltmp22
	.uleb128 Ltmp23-Lfunc_begin5            ##     jumps to Ltmp23
	.byte	0                               ##   On action: cleanup
	.uleb128 Ltmp24-Lfunc_begin5            ## >> Call Site 5 <<
	.uleb128 Ltmp25-Ltmp24                  ##   Call between Ltmp24 and Ltmp25
	.uleb128 Ltmp26-Lfunc_begin5            ##     jumps to Ltmp26
	.byte	0                               ##   On action: cleanup
	.uleb128 Ltmp27-Lfunc_begin5            ## >> Call Site 6 <<
	.uleb128 Ltmp28-Ltmp27                  ##   Call between Ltmp27 and Ltmp28
	.uleb128 Ltmp29-Lfunc_begin5            ##     jumps to Ltmp29
	.byte	0                               ##   On action: cleanup
	.uleb128 Ltmp30-Lfunc_begin5            ## >> Call Site 7 <<
	.uleb128 Ltmp31-Ltmp30                  ##   Call between Ltmp30 and Ltmp31
	.uleb128 Ltmp32-Lfunc_begin5            ##     jumps to Ltmp32
	.byte	0                               ##   On action: cleanup
	.uleb128 Ltmp33-Lfunc_begin5            ## >> Call Site 8 <<
	.uleb128 Ltmp34-Ltmp33                  ##   Call between Ltmp33 and Ltmp34
	.uleb128 Ltmp35-Lfunc_begin5            ##     jumps to Ltmp35
	.byte	0                               ##   On action: cleanup
	.uleb128 Ltmp34-Lfunc_begin5            ## >> Call Site 9 <<
	.uleb128 Lfunc_end5-Ltmp34              ##   Call between Ltmp34 and Lfunc_end5
	.byte	0                               ##     has no landing pad
	.byte	0                               ##   On action: cleanup
Lcst_end5:
	.p2align	2
                                        ## -- End function
	.section	__TEXT,__text,regular,pure_instructions
	.globl	__ZN10VertexlistD1Ev            ## -- Begin function _ZN10VertexlistD1Ev
	.weak_def_can_be_hidden	__ZN10VertexlistD1Ev
	.p2align	4, 0x90
__ZN10VertexlistD1Ev:                   ## @_ZN10VertexlistD1Ev
	.cfi_startproc
## %bb.0:
	pushq	%rbp
	.cfi_def_cfa_offset 16
	.cfi_offset %rbp, -16
	movq	%rsp, %rbp
	.cfi_def_cfa_register %rbp
	callq	__ZN10VertexlistD2Ev
	popq	%rbp
	retq
	.cfi_endproc
                                        ## -- End function
	.globl	__Z10thermalizeRNSt3__16vectorIiNS_9allocatorIiEEEES4_RNS0_IdNS1_IdEEEES7_S7_RNS0_IS6_NS1_IS6_EEEES7_di ## -- Begin function _Z10thermalizeRNSt3__16vectorIiNS_9allocatorIiEEEES4_RNS0_IdNS1_IdEEEES7_S7_RNS0_IS6_NS1_IS6_EEEES7_di
	.p2align	4, 0x90
__Z10thermalizeRNSt3__16vectorIiNS_9allocatorIiEEEES4_RNS0_IdNS1_IdEEEES7_S7_RNS0_IS6_NS1_IS6_EEEES7_di: ## @_Z10thermalizeRNSt3__16vectorIiNS_9allocatorIiEEEES4_RNS0_IdNS1_IdEEEES7_S7_RNS0_IS6_NS1_IS6_EEEES7_di
	.cfi_startproc
## %bb.0:
	pushq	%rbp
	.cfi_def_cfa_offset 16
	.cfi_offset %rbp, -16
	movq	%rsp, %rbp
	.cfi_def_cfa_register %rbp
	pushq	%r15
	pushq	%r14
	pushq	%r13
	pushq	%r12
	pushq	%rbx
	subq	$88, %rsp
	.cfi_offset %rbx, -56
	.cfi_offset %r12, -48
	.cfi_offset %r13, -40
	.cfi_offset %r14, -32
	.cfi_offset %r15, -24
	movsd	%xmm0, -112(%rbp)               ## 8-byte Spill
	movq	%r9, -104(%rbp)                 ## 8-byte Spill
	movq	%r8, -96(%rbp)                  ## 8-byte Spill
	movq	%rcx, -88(%rbp)                 ## 8-byte Spill
	movq	%rdx, -48(%rbp)                 ## 8-byte Spill
	movq	%rsi, -80(%rbp)                 ## 8-byte Spill
	movq	%rdi, -72(%rbp)                 ## 8-byte Spill
	movl	32(%rbp), %eax
	testl	%eax, %eax
	jle	LBB43_5
## %bb.1:
	movq	-80(%rbp), %r12                 ## 8-byte Reload
	movq	-48(%rbp), %r15                 ## 8-byte Reload
	movq	-88(%rbp), %rbx                 ## 8-byte Reload
	movq	-96(%rbp), %r14                 ## 8-byte Reload
	movq	-104(%rbp), %r13                ## 8-byte Reload
	jmp	LBB43_2
	.p2align	4, 0x90
LBB43_4:                                ##   in Loop: Header=BB43_2 Depth=1
	movl	-56(%rbp), %eax                 ## 4-byte Reload
	decl	%eax
	je	LBB43_5
LBB43_2:                                ## =>This Inner Loop Header: Depth=1
	movl	%eax, -56(%rbp)                 ## 4-byte Spill
	movq	24(%rbp), %rax
	movq	%rax, (%rsp)
	movq	%r12, %rdi
	movq	%r15, %rsi
	movq	%rbx, %rdx
	movq	%r14, %rcx
	movq	%r13, %r8
	movq	16(%rbp), %r9
	movsd	-112(%rbp), %xmm0               ## 8-byte Reload
                                        ## xmm0 = mem[0],zero
	callq	__Z15diagonal_updateRNSt3__16vectorIiNS_9allocatorIiEEEES4_RKNS0_IdNS1_IdEEEES8_S8_RKNS0_IS6_NS1_IS6_EEEES8_d
	movl	%eax, -52(%rbp)                 ## 4-byte Spill
	movq	%r12, %rdi
	movq	%r15, %rsi
	movq	%rbx, %rdx
	movq	%r14, %rcx
	movq	%r13, %r8
	callq	__Z14cluster_updateRNSt3__16vectorIiNS_9allocatorIiEEEES4_RNS0_IdNS1_IdEEEES7_S7_
	movq	%r15, %rdi
	callq	__ZNKSt3__16vectorIiNS_9allocatorIiEEE4sizeEv
	movslq	-52(%rbp), %rcx                 ## 4-byte Folded Reload
	imulq	$1431655766, %rcx, %rdx         ## imm = 0x55555556
	movq	%rdx, %rsi
	shrq	$63, %rsi
	shrq	$32, %rdx
	addl	%esi, %edx
	addl	%edx, %ecx
	cmpl	%eax, %ecx
	jle	LBB43_4
## %bb.3:                               ##   in Loop: Header=BB43_2 Depth=1
	movslq	%ecx, %rsi
	movl	$-1, -60(%rbp)
	movq	-48(%rbp), %rdi                 ## 8-byte Reload
	leaq	-60(%rbp), %rdx
	callq	__ZNSt3__16vectorIiNS_9allocatorIiEEE6resizeEmRKi
	jmp	LBB43_4
LBB43_5:
	movq	-72(%rbp), %r14                 ## 8-byte Reload
	movq	%r14, %rdi
	movq	-48(%rbp), %rsi                 ## 8-byte Reload
	callq	__ZNSt3__16vectorIiNS_9allocatorIiEEEC1ERKS3_
	movq	%r14, %rax
	addq	$88, %rsp
	popq	%rbx
	popq	%r12
	popq	%r13
	popq	%r14
	popq	%r15
	popq	%rbp
	retq
	.cfi_endproc
                                        ## -- End function
	.globl	__ZNSt3__16vectorIiNS_9allocatorIiEEE6resizeEmRKi ## -- Begin function _ZNSt3__16vectorIiNS_9allocatorIiEEE6resizeEmRKi
	.weak_def_can_be_hidden	__ZNSt3__16vectorIiNS_9allocatorIiEEE6resizeEmRKi
	.p2align	4, 0x90
__ZNSt3__16vectorIiNS_9allocatorIiEEE6resizeEmRKi: ## @_ZNSt3__16vectorIiNS_9allocatorIiEEE6resizeEmRKi
	.cfi_startproc
## %bb.0:
	pushq	%rbp
	.cfi_def_cfa_offset 16
	.cfi_offset %rbp, -16
	movq	%rsp, %rbp
	.cfi_def_cfa_register %rbp
	pushq	%r15
	pushq	%r14
	pushq	%rbx
	pushq	%rax
	.cfi_offset %rbx, -40
	.cfi_offset %r14, -32
	.cfi_offset %r15, -24
	movq	%rdx, %r15
	movq	%rsi, %rbx
	movq	%rdi, %r14
	callq	__ZNKSt3__16vectorIiNS_9allocatorIiEEE4sizeEv
	cmpq	%rbx, %rax
	jae	LBB44_2
## %bb.1:
	subq	%rax, %rbx
	movq	%r14, %rdi
	movq	%rbx, %rsi
	movq	%r15, %rdx
	callq	__ZNSt3__16vectorIiNS_9allocatorIiEEE8__appendEmRKi
	jmp	LBB44_4
LBB44_2:
	jbe	LBB44_4
## %bb.3:
	shlq	$2, %rbx
	addq	(%r14), %rbx
	movq	%r14, %rdi
	movq	%rbx, %rsi
	callq	__ZNSt3__16vectorIiNS_9allocatorIiEEE17__destruct_at_endEPi
LBB44_4:
	addq	$8, %rsp
	popq	%rbx
	popq	%r14
	popq	%r15
	popq	%rbp
	retq
	.cfi_endproc
                                        ## -- End function
	.globl	__ZNSt3__16vectorIiNS_9allocatorIiEEEC1ERKS3_ ## -- Begin function _ZNSt3__16vectorIiNS_9allocatorIiEEEC1ERKS3_
	.weak_def_can_be_hidden	__ZNSt3__16vectorIiNS_9allocatorIiEEEC1ERKS3_
	.p2align	4, 0x90
__ZNSt3__16vectorIiNS_9allocatorIiEEEC1ERKS3_: ## @_ZNSt3__16vectorIiNS_9allocatorIiEEEC1ERKS3_
	.cfi_startproc
## %bb.0:
	pushq	%rbp
	.cfi_def_cfa_offset 16
	.cfi_offset %rbp, -16
	movq	%rsp, %rbp
	.cfi_def_cfa_register %rbp
	callq	__ZNSt3__16vectorIiNS_9allocatorIiEEEC2ERKS3_
	popq	%rbp
	retq
	.cfi_endproc
                                        ## -- End function
	.globl	__Z14get_staggeringii           ## -- Begin function _Z14get_staggeringii
	.p2align	4, 0x90
__Z14get_staggeringii:                  ## @_Z14get_staggeringii
	.cfi_startproc
## %bb.0:
	pushq	%rbp
	.cfi_def_cfa_offset 16
	.cfi_offset %rbp, -16
	movq	%rsp, %rbp
	.cfi_def_cfa_register %rbp
	pushq	%r15
	pushq	%r14
	pushq	%r13
	pushq	%r12
	pushq	%rbx
	subq	$24, %rsp
	.cfi_offset %rbx, -56
	.cfi_offset %r12, -48
	.cfi_offset %r13, -40
	.cfi_offset %r14, -32
	.cfi_offset %r15, -24
	movl	%edx, %r14d
	movl	%esi, %r15d
	movq	%rdi, %r12
	movl	%edx, %eax
	imull	%esi, %eax
	movslq	%eax, %rsi
	movl	$0, -44(%rbp)
	leaq	-44(%rbp), %rdx
	callq	__ZNSt3__16vectorIiNS_9allocatorIiEEEC1EmRKi
	testl	%r15d, %r15d
	jle	LBB46_6
## %bb.1:
	xorl	%r13d, %r13d
	movq	%r12, -56(%rbp)                 ## 8-byte Spill
	jmp	LBB46_2
	.p2align	4, 0x90
LBB46_5:                                ##   in Loop: Header=BB46_2 Depth=1
	incl	%r13d
	cmpl	%r15d, %r13d
	je	LBB46_6
LBB46_2:                                ## =>This Loop Header: Depth=1
                                        ##     Child Loop BB46_4 Depth 2
	testl	%r14d, %r14d
	jle	LBB46_5
## %bb.3:                               ##   in Loop: Header=BB46_2 Depth=1
	xorl	%ebx, %ebx
	movq	%r13, -64(%rbp)                 ## 8-byte Spill
	.p2align	4, 0x90
LBB46_4:                                ##   Parent Loop BB46_2 Depth=1
                                        ## =>  This Inner Loop Header: Depth=2
	movl	%r13d, %edi
	movl	%ebx, %esi
	movl	%r15d, %edx
	callq	__Z4siteiiii
	movl	%r14d, %r12d
	movl	%eax, %r14d
	leal	(%r13,%rbx), %edi
	callq	__ZL3powIiiENSt3__19_MetaBaseIXaasr3std13is_arithmeticIT_EE5valuesr3std13is_arithmeticIT0_EE5valueEE13_EnableIfImplINS0_9__promoteIS2_S3_vEEE4typeES2_S3_
	movl	%r15d, %r13d
	cvttsd2si	%xmm0, %r15d
	movslq	%r14d, %rsi
	movl	%r12d, %r14d
	movq	-56(%rbp), %r12                 ## 8-byte Reload
	movq	%r12, %rdi
	callq	__ZNSt3__16vectorIiNS_9allocatorIiEEEixEm
	movl	%r15d, (%rax)
	movl	%r13d, %r15d
	movq	-64(%rbp), %r13                 ## 8-byte Reload
	incl	%ebx
	cmpl	%ebx, %r14d
	jne	LBB46_4
	jmp	LBB46_5
LBB46_6:
	movq	%r12, %rax
	addq	$24, %rsp
	popq	%rbx
	popq	%r12
	popq	%r13
	popq	%r14
	popq	%r15
	popq	%rbp
	retq
	.cfi_endproc
                                        ## -- End function
	.section	__TEXT,__literal8,8byte_literals
	.p2align	3                               ## -- Begin function _ZL3powIiiENSt3__19_MetaBaseIXaasr3std13is_arithmeticIT_EE5valuesr3std13is_arithmeticIT0_EE5valueEE13_EnableIfImplINS0_9__promoteIS2_S3_vEEE4typeES2_S3_
LCPI47_0:
	.quad	0xbff0000000000000              ## double -1
	.section	__TEXT,__text,regular,pure_instructions
	.p2align	4, 0x90
__ZL3powIiiENSt3__19_MetaBaseIXaasr3std13is_arithmeticIT_EE5valuesr3std13is_arithmeticIT0_EE5valueEE13_EnableIfImplINS0_9__promoteIS2_S3_vEEE4typeES2_S3_: ## @_ZL3powIiiENSt3__19_MetaBaseIXaasr3std13is_arithmeticIT_EE5valuesr3std13is_arithmeticIT0_EE5valueEE13_EnableIfImplINS0_9__promoteIS2_S3_vEEE4typeES2_S3_
	.cfi_startproc
## %bb.0:
	pushq	%rbp
	.cfi_def_cfa_offset 16
	.cfi_offset %rbp, -16
	movq	%rsp, %rbp
	.cfi_def_cfa_register %rbp
	cvtsi2sd	%edi, %xmm1
	movsd	LCPI47_0(%rip), %xmm0           ## xmm0 = mem[0],zero
	popq	%rbp
	jmp	_pow                            ## TAILCALL
	.cfi_endproc
                                        ## -- End function
	.section	__TEXT,__literal8,8byte_literals
	.p2align	3                               ## -- Begin function _Z23staggered_magnetizationRNSt3__16vectorIiNS_9allocatorIiEEEES4_
LCPI48_0:
	.quad	0x3fe0000000000000              ## double 0.5
	.section	__TEXT,__text,regular,pure_instructions
	.globl	__Z23staggered_magnetizationRNSt3__16vectorIiNS_9allocatorIiEEEES4_
	.p2align	4, 0x90
__Z23staggered_magnetizationRNSt3__16vectorIiNS_9allocatorIiEEEES4_: ## @_Z23staggered_magnetizationRNSt3__16vectorIiNS_9allocatorIiEEEES4_
	.cfi_startproc
## %bb.0:
	pushq	%rbp
	.cfi_def_cfa_offset 16
	.cfi_offset %rbp, -16
	movq	%rsp, %rbp
	.cfi_def_cfa_register %rbp
	pushq	%r15
	pushq	%r14
	pushq	%r12
	pushq	%rbx
	subq	$16, %rsp
	.cfi_offset %rbx, -48
	.cfi_offset %r12, -40
	.cfi_offset %r14, -32
	.cfi_offset %r15, -24
	movq	%rsi, %r14
	movq	%rdi, %r15
	callq	__ZNKSt3__16vectorIiNS_9allocatorIiEEE4sizeEv
	testq	%rax, %rax
	je	LBB48_1
## %bb.3:
	movq	%rax, %r12
	xorps	%xmm0, %xmm0
	xorl	%ebx, %ebx
	.p2align	4, 0x90
LBB48_4:                                ## =>This Inner Loop Header: Depth=1
	movsd	%xmm0, -40(%rbp)                ## 8-byte Spill
	movq	%r15, %rdi
	movq	%rbx, %rsi
	callq	__ZNSt3__16vectorIiNS_9allocatorIiEEEixEm
	xorps	%xmm0, %xmm0
	cvtsi2sdl	(%rax), %xmm0
	mulsd	LCPI48_0(%rip), %xmm0
	movsd	%xmm0, -48(%rbp)                ## 8-byte Spill
	movq	%r14, %rdi
	movq	%rbx, %rsi
	callq	__ZNSt3__16vectorIiNS_9allocatorIiEEEixEm
	xorps	%xmm0, %xmm0
	cvtsi2sdl	(%rax), %xmm0
	mulsd	-48(%rbp), %xmm0                ## 8-byte Folded Reload
	movsd	-40(%rbp), %xmm1                ## 8-byte Reload
                                        ## xmm1 = mem[0],zero
	addsd	%xmm0, %xmm1
	movsd	%xmm1, -40(%rbp)                ## 8-byte Spill
	movsd	-40(%rbp), %xmm0                ## 8-byte Reload
                                        ## xmm0 = mem[0],zero
	incq	%rbx
	cmpq	%rbx, %r12
	jne	LBB48_4
	jmp	LBB48_2
LBB48_1:
	xorps	%xmm0, %xmm0
LBB48_2:
	addq	$16, %rsp
	popq	%rbx
	popq	%r12
	popq	%r14
	popq	%r15
	popq	%rbp
	retq
	.cfi_endproc
                                        ## -- End function
	.section	__TEXT,__literal8,8byte_literals
	.p2align	3                               ## -- Begin function _Z6init_cRNSt3__16vectorIiNS_9allocatorIiEEEERNS0_IdNS1_IdEEEEd
LCPI49_0:
	.quad	0x3fe0000000000000              ## double 0.5
	.section	__TEXT,__text,regular,pure_instructions
	.globl	__Z6init_cRNSt3__16vectorIiNS_9allocatorIiEEEERNS0_IdNS1_IdEEEEd
	.p2align	4, 0x90
__Z6init_cRNSt3__16vectorIiNS_9allocatorIiEEEERNS0_IdNS1_IdEEEEd: ## @_Z6init_cRNSt3__16vectorIiNS_9allocatorIiEEEERNS0_IdNS1_IdEEEEd
	.cfi_startproc
## %bb.0:
	pushq	%rbp
	.cfi_def_cfa_offset 16
	.cfi_offset %rbp, -16
	movq	%rsp, %rbp
	.cfi_def_cfa_register %rbp
	pushq	%r15
	pushq	%r14
	pushq	%r13
	pushq	%r12
	pushq	%rbx
	subq	$24, %rsp
	.cfi_offset %rbx, -56
	.cfi_offset %r12, -48
	.cfi_offset %r13, -40
	.cfi_offset %r14, -32
	.cfi_offset %r15, -24
	movsd	%xmm0, -48(%rbp)                ## 8-byte Spill
	movq	%rsi, %r14
	callq	__ZNKSt3__16vectorIiNS_9allocatorIiEEE4sizeEv
	movq	%rax, %r15
	movl	%r15d, %edi
	callq	__ZL4sqrtIiENSt3__19enable_ifIXsr3std11is_integralIT_EE5valueEdE4typeES2_
	movsd	-48(%rbp), %xmm1                ## 8-byte Reload
                                        ## xmm1 = mem[0],zero
	mulsd	LCPI49_0(%rip), %xmm1
	movsd	%xmm1, -48(%rbp)                ## 8-byte Spill
	testl	%r15d, %r15d
	jle	LBB49_7
## %bb.1:
	cvttsd2si	%xmm0, %r12d
	xorps	%xmm0, %xmm0
	cvtsi2sd	%r15d, %xmm0
	movsd	%xmm0, -56(%rbp)                ## 8-byte Spill
	xorl	%r13d, %r13d
	jmp	LBB49_2
	.p2align	4, 0x90
LBB49_6:                                ##   in Loop: Header=BB49_2 Depth=1
	incl	%r13d
	cmpl	%r15d, %r13d
	je	LBB49_7
LBB49_2:                                ## =>This Loop Header: Depth=1
                                        ##     Child Loop BB49_3 Depth 2
	xorl	%ebx, %ebx
	jmp	LBB49_3
	.p2align	4, 0x90
LBB49_5:                                ##   in Loop: Header=BB49_3 Depth=2
	incl	%ebx
	cmpl	%ebx, %r15d
	je	LBB49_6
LBB49_3:                                ##   Parent Loop BB49_2 Depth=1
                                        ## =>  This Inner Loop Header: Depth=2
	movl	%r13d, %edi
	movl	%ebx, %esi
	movl	%r12d, %edx
	movl	%r12d, %ecx
	callq	__Z7vec_miniiii
	cmpl	%ebx, %r13d
	je	LBB49_5
## %bb.4:                               ##   in Loop: Header=BB49_3 Depth=2
	movslq	%eax, %rsi
	movq	%r14, %rdi
	callq	__ZNSt3__16vectorIdNS_9allocatorIdEEEixEm
	movsd	(%rax), %xmm0                   ## xmm0 = mem[0],zero
	divsd	-56(%rbp), %xmm0                ## 8-byte Folded Reload
	movsd	-48(%rbp), %xmm1                ## 8-byte Reload
                                        ## xmm1 = mem[0],zero
	addsd	%xmm0, %xmm1
	movsd	%xmm1, -48(%rbp)                ## 8-byte Spill
	jmp	LBB49_5
LBB49_7:
	movsd	-48(%rbp), %xmm0                ## 8-byte Reload
                                        ## xmm0 = mem[0],zero
	addq	$24, %rsp
	popq	%rbx
	popq	%r12
	popq	%r13
	popq	%r14
	popq	%r15
	popq	%rbp
	retq
	.cfi_endproc
                                        ## -- End function
	.section	__TEXT,__StaticInit,regular,pure_instructions
	.p2align	4, 0x90                         ## -- Begin function __cxx_global_var_init
___cxx_global_var_init:                 ## @__cxx_global_var_init
	.cfi_startproc
## %bb.0:
	pushq	%rbp
	.cfi_def_cfa_offset 16
	.cfi_offset %rbp, -16
	movq	%rsp, %rbp
	.cfi_def_cfa_register %rbp
	pushq	%rbx
	pushq	%rax
	.cfi_offset %rbx, -24
	leaq	_rd(%rip), %rbx
	movq	%rbx, %rdi
	callq	__ZNSt3__113random_deviceC1Ev
	movq	__ZNSt3__113random_deviceD1Ev@GOTPCREL(%rip), %rdi
	leaq	___dso_handle(%rip), %rdx
	movq	%rbx, %rsi
	callq	___cxa_atexit
	addq	$8, %rsp
	popq	%rbx
	popq	%rbp
	retq
	.cfi_endproc
                                        ## -- End function
	.section	__TEXT,__text,regular,pure_instructions
	.globl	__ZNSt3__113random_deviceC1Ev   ## -- Begin function _ZNSt3__113random_deviceC1Ev
	.weak_def_can_be_hidden	__ZNSt3__113random_deviceC1Ev
	.p2align	4, 0x90
__ZNSt3__113random_deviceC1Ev:          ## @_ZNSt3__113random_deviceC1Ev
Lfunc_begin6:
	.cfi_startproc
	.cfi_personality 155, ___gxx_personality_v0
	.cfi_lsda 16, Lexception6
## %bb.0:
	pushq	%rbp
	.cfi_def_cfa_offset 16
	.cfi_offset %rbp, -16
	movq	%rsp, %rbp
	.cfi_def_cfa_register %rbp
	pushq	%r14
	pushq	%rbx
	subq	$32, %rsp
	.cfi_offset %rbx, -32
	.cfi_offset %r14, -24
	movq	%rdi, %rbx
	leaq	-40(%rbp), %r14
	movq	%r14, %rdi
	callq	__ZNSt3__112basic_stringIcNS_11char_traitsIcEENS_9allocatorIcEEEC1IDnEEPKc
Ltmp36:
	movq	%rbx, %rdi
	movq	%r14, %rsi
	callq	__ZNSt3__113random_deviceC1ERKNS_12basic_stringIcNS_11char_traitsIcEENS_9allocatorIcEEEE
Ltmp37:
## %bb.1:
	leaq	-40(%rbp), %rdi
	callq	__ZNSt3__112basic_stringIcNS_11char_traitsIcEENS_9allocatorIcEEED1Ev
	addq	$32, %rsp
	popq	%rbx
	popq	%r14
	popq	%rbp
	retq
LBB51_2:
Ltmp38:
	movq	%rax, %rbx
	leaq	-40(%rbp), %rdi
	callq	__ZNSt3__112basic_stringIcNS_11char_traitsIcEENS_9allocatorIcEEED1Ev
	movq	%rbx, %rdi
	callq	__Unwind_Resume
	ud2
Lfunc_end6:
	.cfi_endproc
	.section	__TEXT,__gcc_except_tab
	.p2align	2
GCC_except_table51:
Lexception6:
	.byte	255                             ## @LPStart Encoding = omit
	.byte	255                             ## @TType Encoding = omit
	.byte	1                               ## Call site Encoding = uleb128
	.uleb128 Lcst_end6-Lcst_begin6
Lcst_begin6:
	.uleb128 Lfunc_begin6-Lfunc_begin6      ## >> Call Site 1 <<
	.uleb128 Ltmp36-Lfunc_begin6            ##   Call between Lfunc_begin6 and Ltmp36
	.byte	0                               ##     has no landing pad
	.byte	0                               ##   On action: cleanup
	.uleb128 Ltmp36-Lfunc_begin6            ## >> Call Site 2 <<
	.uleb128 Ltmp37-Ltmp36                  ##   Call between Ltmp36 and Ltmp37
	.uleb128 Ltmp38-Lfunc_begin6            ##     jumps to Ltmp38
	.byte	0                               ##   On action: cleanup
	.uleb128 Ltmp37-Lfunc_begin6            ## >> Call Site 3 <<
	.uleb128 Lfunc_end6-Ltmp37              ##   Call between Ltmp37 and Lfunc_end6
	.byte	0                               ##     has no landing pad
	.byte	0                               ##   On action: cleanup
Lcst_end6:
	.p2align	2
                                        ## -- End function
	.section	__TEXT,__StaticInit,regular,pure_instructions
	.p2align	4, 0x90                         ## -- Begin function __cxx_global_var_init.1
___cxx_global_var_init.1:               ## @__cxx_global_var_init.1
	.cfi_startproc
## %bb.0:
	pushq	%rbp
	.cfi_def_cfa_offset 16
	.cfi_offset %rbp, -16
	movq	%rsp, %rbp
	.cfi_def_cfa_register %rbp
	leaq	_rd(%rip), %rdi
	callq	__ZNSt3__113random_deviceclEv
	movl	%eax, %edi
	callq	__ZNSt3__123mersenne_twister_engineIjLm32ELm624ELm397ELm31ELj2567483615ELm11ELj4294967295ELm7ELj2636928640ELm15ELj4022730752ELm18ELj1812433253EEC1Ej
	popq	%rbp
	retq
	.cfi_endproc
                                        ## -- End function
	.section	__TEXT,__text,regular,pure_instructions
	.p2align	4, 0x90                         ## -- Begin function _ZNSt3__123mersenne_twister_engineIjLm32ELm624ELm397ELm31ELj2567483615ELm11ELj4294967295ELm7ELj2636928640ELm15ELj4022730752ELm18ELj1812433253EEC1Ej
__ZNSt3__123mersenne_twister_engineIjLm32ELm624ELm397ELm31ELj2567483615ELm11ELj4294967295ELm7ELj2636928640ELm15ELj4022730752ELm18ELj1812433253EEC1Ej: ## @_ZNSt3__123mersenne_twister_engineIjLm32ELm624ELm397ELm31ELj2567483615ELm11ELj4294967295ELm7ELj2636928640ELm15ELj4022730752ELm18ELj1812433253EEC1Ej
	.cfi_startproc
## %bb.0:
	pushq	%rbp
	.cfi_def_cfa_offset 16
	.cfi_offset %rbp, -16
	movq	%rsp, %rbp
	.cfi_def_cfa_register %rbp
	callq	__ZNSt3__123mersenne_twister_engineIjLm32ELm624ELm397ELm31ELj2567483615ELm11ELj4294967295ELm7ELj2636928640ELm15ELj4022730752ELm18ELj1812433253EEC2Ej
	popq	%rbp
	retq
	.cfi_endproc
                                        ## -- End function
	.section	__TEXT,__literal8,8byte_literals
	.p2align	3                               ## -- Begin function __cxx_global_var_init.2
LCPI54_0:
	.quad	0x3ff0000000000000              ## double 1
	.section	__TEXT,__StaticInit,regular,pure_instructions
	.p2align	4, 0x90
___cxx_global_var_init.2:               ## @__cxx_global_var_init.2
	.cfi_startproc
## %bb.0:
	pushq	%rbp
	.cfi_def_cfa_offset 16
	.cfi_offset %rbp, -16
	movq	%rsp, %rbp
	.cfi_def_cfa_register %rbp
	leaq	_dis(%rip), %rdi
	movsd	LCPI54_0(%rip), %xmm1           ## xmm1 = mem[0],zero
	xorps	%xmm0, %xmm0
	callq	__ZNSt3__125uniform_real_distributionIdEC1Edd
	popq	%rbp
	retq
	.cfi_endproc
                                        ## -- End function
	.section	__TEXT,__text,regular,pure_instructions
	.globl	__ZNSt3__125uniform_real_distributionIdEC1Edd ## -- Begin function _ZNSt3__125uniform_real_distributionIdEC1Edd
	.weak_def_can_be_hidden	__ZNSt3__125uniform_real_distributionIdEC1Edd
	.p2align	4, 0x90
__ZNSt3__125uniform_real_distributionIdEC1Edd: ## @_ZNSt3__125uniform_real_distributionIdEC1Edd
	.cfi_startproc
## %bb.0:
	pushq	%rbp
	.cfi_def_cfa_offset 16
	.cfi_offset %rbp, -16
	movq	%rsp, %rbp
	.cfi_def_cfa_register %rbp
	callq	__ZNSt3__125uniform_real_distributionIdEC2Edd
	popq	%rbp
	retq
	.cfi_endproc
                                        ## -- End function
	.section	__TEXT,__literal8,8byte_literals
	.p2align	3                               ## -- Begin function main
LCPI56_0:
	.quad	0x3ff199999999999a              ## double 1.1000000000000001
LCPI56_1:
	.quad	0x3ff0000000000000              ## double 1
LCPI56_2:
	.quad	0x3ffe666666666666              ## double 1.8999999999999999
LCPI56_3:
	.quad	0x3fe0000000000000              ## double 0.5
LCPI56_4:
	.quad	0x3fb999999999999a              ## double 0.10000000000000001
LCPI56_5:
	.quad	0x4024000000000000              ## double 10
	.section	__TEXT,__text,regular,pure_instructions
	.globl	_main
	.p2align	4, 0x90
_main:                                  ## @main
Lfunc_begin7:
	.cfi_startproc
	.cfi_personality 155, ___gxx_personality_v0
	.cfi_lsda 16, Lexception7
## %bb.0:
	pushq	%rbp
	.cfi_def_cfa_offset 16
	.cfi_offset %rbp, -16
	movq	%rsp, %rbp
	.cfi_def_cfa_register %rbp
	pushq	%r14
	pushq	%rbx
	subq	$112, %rsp
	.cfi_offset %rbx, -32
	.cfi_offset %r14, -24
	callq	__ZNSt3__16chrono12steady_clock3nowEv
	movq	%rax, -48(%rbp)
	leaq	-128(%rbp), %rdi
	movsd	LCPI56_0(%rip), %xmm0           ## xmm0 = mem[0],zero
	movsd	LCPI56_1(%rip), %xmm1           ## xmm1 = mem[0],zero
	movsd	LCPI56_2(%rip), %xmm4           ## xmm4 = mem[0],zero
	movsd	LCPI56_3(%rip), %xmm5           ## xmm5 = mem[0],zero
	movsd	LCPI56_4(%rip), %xmm6           ## xmm6 = mem[0],zero
	movaps	%xmm1, %xmm2
	movaps	%xmm1, %xmm3
	movl	$4, %esi
	movl	$4, %edx
	movl	$1000, %ecx                     ## imm = 0x3E8
	movl	$400, %r8d                      ## imm = 0x190
	callq	__ZN10SimulationC1Eddddddiidii
	callq	__ZNSt3__16chrono12steady_clock3nowEv
	movq	%rax, -40(%rbp)
	leaq	-40(%rbp), %rdi
	leaq	-48(%rbp), %rsi
	callq	__ZNSt3__16chronomiINS0_12steady_clockENS0_8durationIxNS_5ratioILl1ELl1000000000EEEEES6_EENS_11common_typeIJT0_T1_EE4typeERKNS0_10time_pointIT_S8_EERKNSC_ISD_S9_EE
	movq	%rax, -24(%rbp)
	leaq	-56(%rbp), %rbx
	leaq	-24(%rbp), %rsi
	movq	%rbx, %rdi
	callq	__ZNSt3__16chrono8durationIdNS_5ratioILl1ELl1EEEEC1IxNS2_ILl1ELl1000000000EEEEERKNS1_IT_T0_EEPNS_9enable_ifIXaasr13__no_overflowIS8_S3_EE5valueooL_ZNS_17integral_constantIbLb1EE5valueEEaaeqsr13__no_overflowIS8_S3_E4typeE3denLi1Entsr23treat_as_floating_pointIS7_EE5valueEvE4typeE
	movq	%rbx, %rdi
	callq	__ZNKSt3__16chrono8durationIdNS_5ratioILl1ELl1EEEE5countEv
	movsd	%xmm0, -32(%rbp)                ## 8-byte Spill
Ltmp39:
	callq	__ZNSt3__113basic_ostreamIcNS_11char_traitsIcEEElsEPFRNS_8ios_baseES5_E
Ltmp40:
## %bb.1:
	callq	__ZNSt3__1L12setprecisionEi
	movl	%eax, -24(%rbp)
	leaq	-24(%rbp), %rdi
	callq	__ZNSt3__1lsIcNS_11char_traitsIcEEEERNS_13basic_ostreamIT_T0_EES7_RKNS_8__iom_t5E
Ltmp41:
	movq	__ZNSt3__14coutE@GOTPCREL(%rip), %rdi
	movsd	-32(%rbp), %xmm0                ## 8-byte Reload
                                        ## xmm0 = mem[0],zero
	callq	__ZNSt3__113basic_ostreamIcNS_11char_traitsIcEEElsEd
Ltmp42:
## %bb.2:
Ltmp43:
	movq	%rax, %rdi
	callq	__ZNSt3__113basic_ostreamIcNS_11char_traitsIcEEElsEPFRS3_S4_E
Ltmp44:
## %bb.3:
Ltmp46:
	movq	__ZNSt3__14coutE@GOTPCREL(%rip), %rdi
	leaq	L_.str.3(%rip), %rsi
	callq	__ZNSt3__1lsINS_11char_traitsIcEEEERNS_13basic_ostreamIcT_EES6_PKc
Ltmp47:
## %bb.4:
Ltmp48:
	movq	%rax, %rdi
	movl	$4, %esi
	callq	__ZNSt3__113basic_ostreamIcNS_11char_traitsIcEEElsEi
Ltmp49:
## %bb.5:
Ltmp50:
	leaq	L_.str.4(%rip), %rsi
	movq	%rax, %rdi
	callq	__ZNSt3__1lsINS_11char_traitsIcEEEERNS_13basic_ostreamIcT_EES6_PKc
Ltmp51:
## %bb.6:
	movq	%rax, %rbx
	leaq	-128(%rbp), %rdi
	xorl	%esi, %esi
	callq	__ZNSt3__16vectorIdNS_9allocatorIdEEEixEm
	movsd	(%rax), %xmm0                   ## xmm0 = mem[0],zero
Ltmp52:
	movq	%rbx, %rdi
	callq	__ZNSt3__113basic_ostreamIcNS_11char_traitsIcEEElsEd
Ltmp53:
## %bb.7:
Ltmp54:
	leaq	L_.str.5(%rip), %rsi
	movq	%rax, %rdi
	callq	__ZNSt3__1lsINS_11char_traitsIcEEEERNS_13basic_ostreamIcT_EES6_PKc
Ltmp55:
## %bb.8:
	movq	%rax, %rbx
	leaq	-128(%rbp), %rdi
	movl	$1, %esi
	callq	__ZNSt3__16vectorIdNS_9allocatorIdEEEixEm
	movsd	(%rax), %xmm0                   ## xmm0 = mem[0],zero
Ltmp56:
	movq	%rbx, %rdi
	callq	__ZNSt3__113basic_ostreamIcNS_11char_traitsIcEEElsEd
Ltmp57:
## %bb.9:
Ltmp58:
	leaq	L_.str.6(%rip), %rsi
	movq	%rax, %rdi
	callq	__ZNSt3__1lsINS_11char_traitsIcEEEERNS_13basic_ostreamIcT_EES6_PKc
Ltmp59:
## %bb.10:
Ltmp60:
	movsd	LCPI56_5(%rip), %xmm0           ## xmm0 = mem[0],zero
	movq	%rax, %rdi
	callq	__ZNSt3__113basic_ostreamIcNS_11char_traitsIcEEElsEd
Ltmp61:
## %bb.11:
Ltmp62:
	movq	%rax, %rdi
	callq	__ZNSt3__113basic_ostreamIcNS_11char_traitsIcEEElsEPFRS3_S4_E
Ltmp63:
## %bb.12:
Ltmp64:
	movq	__ZNSt3__14coutE@GOTPCREL(%rip), %rdi
	leaq	L_.str.3(%rip), %rsi
	callq	__ZNSt3__1lsINS_11char_traitsIcEEEERNS_13basic_ostreamIcT_EES6_PKc
Ltmp65:
## %bb.13:
Ltmp66:
	movq	%rax, %rdi
	movl	$4, %esi
	callq	__ZNSt3__113basic_ostreamIcNS_11char_traitsIcEEElsEi
Ltmp67:
## %bb.14:
Ltmp68:
	leaq	L_.str.7(%rip), %rsi
	movq	%rax, %rdi
	callq	__ZNSt3__1lsINS_11char_traitsIcEEEERNS_13basic_ostreamIcT_EES6_PKc
Ltmp69:
## %bb.15:
	movq	%rax, %rbx
	leaq	-104(%rbp), %r14
	movq	%r14, %rdi
	xorl	%esi, %esi
	callq	__ZNSt3__16vectorIdNS_9allocatorIdEEEixEm
	movsd	(%rax), %xmm0                   ## xmm0 = mem[0],zero
Ltmp70:
	movq	%rbx, %rdi
	callq	__ZNSt3__113basic_ostreamIcNS_11char_traitsIcEEElsEd
Ltmp71:
## %bb.16:
Ltmp72:
	leaq	L_.str.5(%rip), %rsi
	movq	%rax, %rdi
	callq	__ZNSt3__1lsINS_11char_traitsIcEEEERNS_13basic_ostreamIcT_EES6_PKc
Ltmp73:
## %bb.17:
	movq	%rax, %rbx
	movl	$1, %esi
	movq	%r14, %rdi
	callq	__ZNSt3__16vectorIdNS_9allocatorIdEEEixEm
	movsd	(%rax), %xmm0                   ## xmm0 = mem[0],zero
Ltmp74:
	movq	%rbx, %rdi
	callq	__ZNSt3__113basic_ostreamIcNS_11char_traitsIcEEElsEd
Ltmp75:
## %bb.18:
Ltmp76:
	leaq	L_.str.6(%rip), %rsi
	movq	%rax, %rdi
	callq	__ZNSt3__1lsINS_11char_traitsIcEEEERNS_13basic_ostreamIcT_EES6_PKc
Ltmp77:
## %bb.19:
Ltmp78:
	movsd	LCPI56_5(%rip), %xmm0           ## xmm0 = mem[0],zero
	movq	%rax, %rdi
	callq	__ZNSt3__113basic_ostreamIcNS_11char_traitsIcEEElsEd
Ltmp79:
## %bb.20:
Ltmp80:
	movq	%rax, %rdi
	callq	__ZNSt3__113basic_ostreamIcNS_11char_traitsIcEEElsEPFRS3_S4_E
Ltmp81:
## %bb.21:
Ltmp82:
	movq	__ZNSt3__14coutE@GOTPCREL(%rip), %rdi
	leaq	L_.str.3(%rip), %rsi
	callq	__ZNSt3__1lsINS_11char_traitsIcEEEERNS_13basic_ostreamIcT_EES6_PKc
Ltmp83:
## %bb.22:
Ltmp84:
	movq	%rax, %rdi
	movl	$4, %esi
	callq	__ZNSt3__113basic_ostreamIcNS_11char_traitsIcEEElsEi
Ltmp85:
## %bb.23:
Ltmp86:
	leaq	L_.str.8(%rip), %rsi
	movq	%rax, %rdi
	callq	__ZNSt3__1lsINS_11char_traitsIcEEEERNS_13basic_ostreamIcT_EES6_PKc
Ltmp87:
## %bb.24:
	movq	%rax, %rbx
	leaq	-80(%rbp), %r14
	movq	%r14, %rdi
	xorl	%esi, %esi
	callq	__ZNSt3__16vectorIdNS_9allocatorIdEEEixEm
	movsd	(%rax), %xmm0                   ## xmm0 = mem[0],zero
Ltmp88:
	movq	%rbx, %rdi
	callq	__ZNSt3__113basic_ostreamIcNS_11char_traitsIcEEElsEd
Ltmp89:
## %bb.25:
Ltmp90:
	leaq	L_.str.5(%rip), %rsi
	movq	%rax, %rdi
	callq	__ZNSt3__1lsINS_11char_traitsIcEEEERNS_13basic_ostreamIcT_EES6_PKc
Ltmp91:
## %bb.26:
	movq	%rax, %rbx
	movl	$1, %esi
	movq	%r14, %rdi
	callq	__ZNSt3__16vectorIdNS_9allocatorIdEEEixEm
	movsd	(%rax), %xmm0                   ## xmm0 = mem[0],zero
Ltmp92:
	movq	%rbx, %rdi
	callq	__ZNSt3__113basic_ostreamIcNS_11char_traitsIcEEElsEd
Ltmp93:
## %bb.27:
Ltmp94:
	leaq	L_.str.6(%rip), %rsi
	movq	%rax, %rdi
	callq	__ZNSt3__1lsINS_11char_traitsIcEEEERNS_13basic_ostreamIcT_EES6_PKc
Ltmp95:
## %bb.28:
Ltmp96:
	movsd	LCPI56_5(%rip), %xmm0           ## xmm0 = mem[0],zero
	movq	%rax, %rdi
	callq	__ZNSt3__113basic_ostreamIcNS_11char_traitsIcEEElsEd
Ltmp97:
## %bb.29:
Ltmp98:
	movq	%rax, %rdi
	callq	__ZNSt3__113basic_ostreamIcNS_11char_traitsIcEEElsEPFRS3_S4_E
Ltmp99:
## %bb.30:
	leaq	-128(%rbp), %rdi
	callq	__ZN10SimulationD1Ev
	xorl	%eax, %eax
	addq	$112, %rsp
	popq	%rbx
	popq	%r14
	popq	%rbp
	retq
LBB56_32:
Ltmp45:
	jmp	LBB56_33
LBB56_31:
Ltmp100:
LBB56_33:
	movq	%rax, %rbx
	leaq	-128(%rbp), %rdi
	callq	__ZN10SimulationD1Ev
	movq	%rbx, %rdi
	callq	__Unwind_Resume
	ud2
Lfunc_end7:
	.cfi_endproc
	.section	__TEXT,__gcc_except_tab
	.p2align	2
GCC_except_table56:
Lexception7:
	.byte	255                             ## @LPStart Encoding = omit
	.byte	255                             ## @TType Encoding = omit
	.byte	1                               ## Call site Encoding = uleb128
	.uleb128 Lcst_end7-Lcst_begin7
Lcst_begin7:
	.uleb128 Lfunc_begin7-Lfunc_begin7      ## >> Call Site 1 <<
	.uleb128 Ltmp39-Lfunc_begin7            ##   Call between Lfunc_begin7 and Ltmp39
	.byte	0                               ##     has no landing pad
	.byte	0                               ##   On action: cleanup
	.uleb128 Ltmp39-Lfunc_begin7            ## >> Call Site 2 <<
	.uleb128 Ltmp40-Ltmp39                  ##   Call between Ltmp39 and Ltmp40
	.uleb128 Ltmp100-Lfunc_begin7           ##     jumps to Ltmp100
	.byte	0                               ##   On action: cleanup
	.uleb128 Ltmp41-Lfunc_begin7            ## >> Call Site 3 <<
	.uleb128 Ltmp44-Ltmp41                  ##   Call between Ltmp41 and Ltmp44
	.uleb128 Ltmp45-Lfunc_begin7            ##     jumps to Ltmp45
	.byte	0                               ##   On action: cleanup
	.uleb128 Ltmp46-Lfunc_begin7            ## >> Call Site 4 <<
	.uleb128 Ltmp99-Ltmp46                  ##   Call between Ltmp46 and Ltmp99
	.uleb128 Ltmp100-Lfunc_begin7           ##     jumps to Ltmp100
	.byte	0                               ##   On action: cleanup
	.uleb128 Ltmp99-Lfunc_begin7            ## >> Call Site 5 <<
	.uleb128 Lfunc_end7-Ltmp99              ##   Call between Ltmp99 and Lfunc_end7
	.byte	0                               ##     has no landing pad
	.byte	0                               ##   On action: cleanup
Lcst_end7:
	.p2align	2
                                        ## -- End function
	.section	__TEXT,__text,regular,pure_instructions
	.globl	__ZN10SimulationC1Eddddddiidii  ## -- Begin function _ZN10SimulationC1Eddddddiidii
	.weak_def_can_be_hidden	__ZN10SimulationC1Eddddddiidii
	.p2align	4, 0x90
__ZN10SimulationC1Eddddddiidii:         ## @_ZN10SimulationC1Eddddddiidii
	.cfi_startproc
## %bb.0:
	pushq	%rbp
	.cfi_def_cfa_offset 16
	.cfi_offset %rbp, -16
	movq	%rsp, %rbp
	.cfi_def_cfa_register %rbp
	callq	__ZN10SimulationC2Eddddddiidii
	popq	%rbp
	retq
	.cfi_endproc
                                        ## -- End function
	.p2align	4, 0x90                         ## -- Begin function _ZNSt3__16chronomiINS0_12steady_clockENS0_8durationIxNS_5ratioILl1ELl1000000000EEEEES6_EENS_11common_typeIJT0_T1_EE4typeERKNS0_10time_pointIT_S8_EERKNSC_ISD_S9_EE
__ZNSt3__16chronomiINS0_12steady_clockENS0_8durationIxNS_5ratioILl1ELl1000000000EEEEES6_EENS_11common_typeIJT0_T1_EE4typeERKNS0_10time_pointIT_S8_EERKNSC_ISD_S9_EE: ## @_ZNSt3__16chronomiINS0_12steady_clockENS0_8durationIxNS_5ratioILl1ELl1000000000EEEEES6_EENS_11common_typeIJT0_T1_EE4typeERKNS0_10time_pointIT_S8_EERKNSC_ISD_S9_EE
	.cfi_startproc
## %bb.0:
	pushq	%rbp
	.cfi_def_cfa_offset 16
	.cfi_offset %rbp, -16
	movq	%rsp, %rbp
	.cfi_def_cfa_register %rbp
	pushq	%rbx
	subq	$24, %rsp
	.cfi_offset %rbx, -24
	movq	%rsi, %rbx
	callq	__ZNKSt3__16chrono10time_pointINS0_12steady_clockENS0_8durationIxNS_5ratioILl1ELl1000000000EEEEEE16time_since_epochEv
	movq	%rax, -24(%rbp)
	movq	%rbx, %rdi
	callq	__ZNKSt3__16chrono10time_pointINS0_12steady_clockENS0_8durationIxNS_5ratioILl1ELl1000000000EEEEEE16time_since_epochEv
	movq	%rax, -16(%rbp)
	leaq	-24(%rbp), %rdi
	leaq	-16(%rbp), %rsi
	callq	__ZNSt3__16chronomiIxNS_5ratioILl1ELl1000000000EEExS3_EENS_11common_typeIJNS0_8durationIT_T0_EENS5_IT1_T2_EEEE4typeERKS8_RKSB_
	addq	$24, %rsp
	popq	%rbx
	popq	%rbp
	retq
	.cfi_endproc
                                        ## -- End function
	.p2align	4, 0x90                         ## -- Begin function _ZNSt3__16chrono8durationIdNS_5ratioILl1ELl1EEEEC1IxNS2_ILl1ELl1000000000EEEEERKNS1_IT_T0_EEPNS_9enable_ifIXaasr13__no_overflowIS8_S3_EE5valueooL_ZNS_17integral_constantIbLb1EE5valueEEaaeqsr13__no_overflowIS8_S3_E4typeE3denLi1Entsr23treat_as_floating_pointIS7_EE5valueEvE4typeE
__ZNSt3__16chrono8durationIdNS_5ratioILl1ELl1EEEEC1IxNS2_ILl1ELl1000000000EEEEERKNS1_IT_T0_EEPNS_9enable_ifIXaasr13__no_overflowIS8_S3_EE5valueooL_ZNS_17integral_constantIbLb1EE5valueEEaaeqsr13__no_overflowIS8_S3_E4typeE3denLi1Entsr23treat_as_floating_pointIS7_EE5valueEvE4typeE: ## @_ZNSt3__16chrono8durationIdNS_5ratioILl1ELl1EEEEC1IxNS2_ILl1ELl1000000000EEEEERKNS1_IT_T0_EEPNS_9enable_ifIXaasr13__no_overflowIS8_S3_EE5valueooL_ZNS_17integral_constantIbLb1EE5valueEEaaeqsr13__no_overflowIS8_S3_E4typeE3denLi1Entsr23treat_as_floating_pointIS7_EE5valueEvE4typeE
	.cfi_startproc
## %bb.0:
	pushq	%rbp
	.cfi_def_cfa_offset 16
	.cfi_offset %rbp, -16
	movq	%rsp, %rbp
	.cfi_def_cfa_register %rbp
	callq	__ZNSt3__16chrono8durationIdNS_5ratioILl1ELl1EEEEC2IxNS2_ILl1ELl1000000000EEEEERKNS1_IT_T0_EEPNS_9enable_ifIXaasr13__no_overflowIS8_S3_EE5valueooL_ZNS_17integral_constantIbLb1EE5valueEEaaeqsr13__no_overflowIS8_S3_E4typeE3denLi1Entsr23treat_as_floating_pointIS7_EE5valueEvE4typeE
	popq	%rbp
	retq
	.cfi_endproc
                                        ## -- End function
	.p2align	4, 0x90                         ## -- Begin function _ZNKSt3__16chrono8durationIdNS_5ratioILl1ELl1EEEE5countEv
__ZNKSt3__16chrono8durationIdNS_5ratioILl1ELl1EEEE5countEv: ## @_ZNKSt3__16chrono8durationIdNS_5ratioILl1ELl1EEEE5countEv
	.cfi_startproc
## %bb.0:
	pushq	%rbp
	.cfi_def_cfa_offset 16
	.cfi_offset %rbp, -16
	movq	%rsp, %rbp
	.cfi_def_cfa_register %rbp
	movsd	(%rdi), %xmm0                   ## xmm0 = mem[0],zero
	popq	%rbp
	retq
	.cfi_endproc
                                        ## -- End function
	.p2align	4, 0x90                         ## -- Begin function _ZNSt3__1lsIcNS_11char_traitsIcEEEERNS_13basic_ostreamIT_T0_EES7_RKNS_8__iom_t5E
__ZNSt3__1lsIcNS_11char_traitsIcEEEERNS_13basic_ostreamIT_T0_EES7_RKNS_8__iom_t5E: ## @_ZNSt3__1lsIcNS_11char_traitsIcEEEERNS_13basic_ostreamIT_T0_EES7_RKNS_8__iom_t5E
	.cfi_startproc
## %bb.0:
	pushq	%rbp
	.cfi_def_cfa_offset 16
	.cfi_offset %rbp, -16
	movq	%rsp, %rbp
	.cfi_def_cfa_register %rbp
	movq	__ZNSt3__14coutE@GOTPCREL(%rip), %rax
	movq	(%rax), %rcx
	addq	-24(%rcx), %rax
	movslq	(%rdi), %rsi
	movq	%rax, %rdi
	callq	__ZNSt3__18ios_base9precisionEl
	popq	%rbp
	retq
	.cfi_endproc
                                        ## -- End function
	.p2align	4, 0x90                         ## -- Begin function _ZNSt3__113basic_ostreamIcNS_11char_traitsIcEEElsEPFRNS_8ios_baseES5_E
__ZNSt3__113basic_ostreamIcNS_11char_traitsIcEEElsEPFRNS_8ios_baseES5_E: ## @_ZNSt3__113basic_ostreamIcNS_11char_traitsIcEEElsEPFRNS_8ios_baseES5_E
	.cfi_startproc
## %bb.0:
	pushq	%rbp
	.cfi_def_cfa_offset 16
	.cfi_offset %rbp, -16
	movq	%rsp, %rbp
	.cfi_def_cfa_register %rbp
	movq	__ZNSt3__14coutE@GOTPCREL(%rip), %rdi
	movq	(%rdi), %rax
	addq	-24(%rax), %rdi
	callq	__ZNSt3__15fixedERNS_8ios_baseE
	popq	%rbp
	retq
	.cfi_endproc
                                        ## -- End function
	.globl	__ZNSt3__15fixedERNS_8ios_baseE ## -- Begin function _ZNSt3__15fixedERNS_8ios_baseE
	.weak_def_can_be_hidden	__ZNSt3__15fixedERNS_8ios_baseE
	.p2align	4, 0x90
__ZNSt3__15fixedERNS_8ios_baseE:        ## @_ZNSt3__15fixedERNS_8ios_baseE
	.cfi_startproc
## %bb.0:
	pushq	%rbp
	.cfi_def_cfa_offset 16
	.cfi_offset %rbp, -16
	movq	%rsp, %rbp
	.cfi_def_cfa_register %rbp
	pushq	%rbx
	pushq	%rax
	.cfi_offset %rbx, -24
	movq	%rdi, %rbx
	callq	__ZNSt3__18ios_base4setfEjj
	movq	%rbx, %rax
	addq	$8, %rsp
	popq	%rbx
	popq	%rbp
	retq
	.cfi_endproc
                                        ## -- End function
	.p2align	4, 0x90                         ## -- Begin function _ZNSt3__1L12setprecisionEi
__ZNSt3__1L12setprecisionEi:            ## @_ZNSt3__1L12setprecisionEi
	.cfi_startproc
## %bb.0:
	pushq	%rbp
	.cfi_def_cfa_offset 16
	.cfi_offset %rbp, -16
	movq	%rsp, %rbp
	.cfi_def_cfa_register %rbp
	subq	$16, %rsp
	leaq	-8(%rbp), %rdi
	callq	__ZNSt3__18__iom_t5C1Ei
	movl	-8(%rbp), %eax
	addq	$16, %rsp
	popq	%rbp
	retq
	.cfi_endproc
                                        ## -- End function
	.p2align	4, 0x90                         ## -- Begin function _ZNSt3__113basic_ostreamIcNS_11char_traitsIcEEElsEPFRS3_S4_E
__ZNSt3__113basic_ostreamIcNS_11char_traitsIcEEElsEPFRS3_S4_E: ## @_ZNSt3__113basic_ostreamIcNS_11char_traitsIcEEElsEPFRS3_S4_E
	.cfi_startproc
## %bb.0:
	pushq	%rbp
	.cfi_def_cfa_offset 16
	.cfi_offset %rbp, -16
	movq	%rsp, %rbp
	.cfi_def_cfa_register %rbp
	callq	__ZNSt3__14endlIcNS_11char_traitsIcEEEERNS_13basic_ostreamIT_T0_EES7_
	popq	%rbp
	retq
	.cfi_endproc
                                        ## -- End function
	.globl	__ZNSt3__14endlIcNS_11char_traitsIcEEEERNS_13basic_ostreamIT_T0_EES7_ ## -- Begin function _ZNSt3__14endlIcNS_11char_traitsIcEEEERNS_13basic_ostreamIT_T0_EES7_
	.weak_def_can_be_hidden	__ZNSt3__14endlIcNS_11char_traitsIcEEEERNS_13basic_ostreamIT_T0_EES7_
	.p2align	4, 0x90
__ZNSt3__14endlIcNS_11char_traitsIcEEEERNS_13basic_ostreamIT_T0_EES7_: ## @_ZNSt3__14endlIcNS_11char_traitsIcEEEERNS_13basic_ostreamIT_T0_EES7_
	.cfi_startproc
## %bb.0:
	pushq	%rbp
	.cfi_def_cfa_offset 16
	.cfi_offset %rbp, -16
	movq	%rsp, %rbp
	.cfi_def_cfa_register %rbp
	pushq	%rbx
	pushq	%rax
	.cfi_offset %rbx, -24
	movq	%rdi, %rbx
	movq	(%rdi), %rax
	movq	-24(%rax), %rdi
	addq	%rbx, %rdi
	movl	$10, %esi
	callq	__ZNKSt3__19basic_iosIcNS_11char_traitsIcEEE5widenEc
	movsbl	%al, %esi
	movq	%rbx, %rdi
	callq	__ZNSt3__113basic_ostreamIcNS_11char_traitsIcEEE3putEc
	movq	%rbx, %rdi
	callq	__ZNSt3__113basic_ostreamIcNS_11char_traitsIcEEE5flushEv
	movq	%rbx, %rax
	addq	$8, %rsp
	popq	%rbx
	popq	%rbp
	retq
	.cfi_endproc
                                        ## -- End function
	.globl	__ZNSt3__1lsINS_11char_traitsIcEEEERNS_13basic_ostreamIcT_EES6_PKc ## -- Begin function _ZNSt3__1lsINS_11char_traitsIcEEEERNS_13basic_ostreamIcT_EES6_PKc
	.weak_def_can_be_hidden	__ZNSt3__1lsINS_11char_traitsIcEEEERNS_13basic_ostreamIcT_EES6_PKc
	.p2align	4, 0x90
__ZNSt3__1lsINS_11char_traitsIcEEEERNS_13basic_ostreamIcT_EES6_PKc: ## @_ZNSt3__1lsINS_11char_traitsIcEEEERNS_13basic_ostreamIcT_EES6_PKc
	.cfi_startproc
## %bb.0:
	pushq	%rbp
	.cfi_def_cfa_offset 16
	.cfi_offset %rbp, -16
	movq	%rsp, %rbp
	.cfi_def_cfa_register %rbp
	pushq	%r14
	pushq	%rbx
	.cfi_offset %rbx, -32
	.cfi_offset %r14, -24
	movq	%rsi, %rbx
	movq	%rdi, %r14
	movq	%rsi, %rdi
	callq	__ZNSt3__111char_traitsIcE6lengthEPKc
	movq	%r14, %rdi
	movq	%rbx, %rsi
	movq	%rax, %rdx
	callq	__ZNSt3__124__put_character_sequenceIcNS_11char_traitsIcEEEERNS_13basic_ostreamIT_T0_EES7_PKS4_m
	popq	%rbx
	popq	%r14
	popq	%rbp
	retq
	.cfi_endproc
                                        ## -- End function
	.globl	__ZN10SimulationD1Ev            ## -- Begin function _ZN10SimulationD1Ev
	.weak_def_can_be_hidden	__ZN10SimulationD1Ev
	.p2align	4, 0x90
__ZN10SimulationD1Ev:                   ## @_ZN10SimulationD1Ev
	.cfi_startproc
## %bb.0:
	pushq	%rbp
	.cfi_def_cfa_offset 16
	.cfi_offset %rbp, -16
	movq	%rsp, %rbp
	.cfi_def_cfa_register %rbp
	callq	__ZN10SimulationD2Ev
	popq	%rbp
	retq
	.cfi_endproc
                                        ## -- End function
	.p2align	4, 0x90                         ## -- Begin function _ZNSt3__111__wrap_iterIPKiEC2IPiEERKNS0_IT_EEPNS_9enable_ifIXsr14is_convertibleIS6_S2_EE5valueEvE4typeE
__ZNSt3__111__wrap_iterIPKiEC2IPiEERKNS0_IT_EEPNS_9enable_ifIXsr14is_convertibleIS6_S2_EE5valueEvE4typeE: ## @_ZNSt3__111__wrap_iterIPKiEC2IPiEERKNS0_IT_EEPNS_9enable_ifIXsr14is_convertibleIS6_S2_EE5valueEvE4typeE
	.cfi_startproc
## %bb.0:
	pushq	%rbp
	.cfi_def_cfa_offset 16
	.cfi_offset %rbp, -16
	movq	%rsp, %rbp
	.cfi_def_cfa_register %rbp
	pushq	%rbx
	pushq	%rax
	.cfi_offset %rbx, -24
	movq	%rdi, %rbx
	movq	%rsi, %rdi
	callq	__ZNKSt3__111__wrap_iterIPiE4baseEv
	movq	%rax, (%rbx)
	addq	$8, %rsp
	popq	%rbx
	popq	%rbp
	retq
	.cfi_endproc
                                        ## -- End function
	.p2align	4, 0x90                         ## -- Begin function _ZNKSt3__111__wrap_iterIPiE4baseEv
__ZNKSt3__111__wrap_iterIPiE4baseEv:    ## @_ZNKSt3__111__wrap_iterIPiE4baseEv
	.cfi_startproc
## %bb.0:
	pushq	%rbp
	.cfi_def_cfa_offset 16
	.cfi_offset %rbp, -16
	movq	%rsp, %rbp
	.cfi_def_cfa_register %rbp
	movq	(%rdi), %rax
	popq	%rbp
	retq
	.cfi_endproc
                                        ## -- End function
	.p2align	4, 0x90                         ## -- Begin function _ZNSt3__1eqIPKiPiEEbRKNS_11__wrap_iterIT_EERKNS4_IT0_EE
__ZNSt3__1eqIPKiPiEEbRKNS_11__wrap_iterIT_EERKNS4_IT0_EE: ## @_ZNSt3__1eqIPKiPiEEbRKNS_11__wrap_iterIT_EERKNS4_IT0_EE
	.cfi_startproc
## %bb.0:
	pushq	%rbp
	.cfi_def_cfa_offset 16
	.cfi_offset %rbp, -16
	movq	%rsp, %rbp
	.cfi_def_cfa_register %rbp
	pushq	%r14
	pushq	%rbx
	.cfi_offset %rbx, -32
	.cfi_offset %r14, -24
	movq	%rsi, %r14
	callq	__ZNKSt3__111__wrap_iterIPKiE4baseEv
	movq	%rax, %rbx
	movq	%r14, %rdi
	callq	__ZNKSt3__111__wrap_iterIPiE4baseEv
	cmpq	%rax, %rbx
	sete	%al
	popq	%rbx
	popq	%r14
	popq	%rbp
	retq
	.cfi_endproc
                                        ## -- End function
	.p2align	4, 0x90                         ## -- Begin function _ZNKSt3__111__wrap_iterIPKiE4baseEv
__ZNKSt3__111__wrap_iterIPKiE4baseEv:   ## @_ZNKSt3__111__wrap_iterIPKiE4baseEv
	.cfi_startproc
## %bb.0:
	pushq	%rbp
	.cfi_def_cfa_offset 16
	.cfi_offset %rbp, -16
	movq	%rsp, %rbp
	.cfi_def_cfa_register %rbp
	movq	(%rdi), %rax
	popq	%rbp
	retq
	.cfi_endproc
                                        ## -- End function
	.globl	__ZN10VertexlistC2ERNSt3__16vectorIiNS0_9allocatorIiEEEES5_ ## -- Begin function _ZN10VertexlistC2ERNSt3__16vectorIiNS0_9allocatorIiEEEES5_
	.weak_def_can_be_hidden	__ZN10VertexlistC2ERNSt3__16vectorIiNS0_9allocatorIiEEEES5_
	.p2align	4, 0x90
__ZN10VertexlistC2ERNSt3__16vectorIiNS0_9allocatorIiEEEES5_: ## @_ZN10VertexlistC2ERNSt3__16vectorIiNS0_9allocatorIiEEEES5_
Lfunc_begin8:
	.cfi_startproc
	.cfi_personality 155, ___gxx_personality_v0
	.cfi_lsda 16, Lexception8
## %bb.0:
	pushq	%rbp
	.cfi_def_cfa_offset 16
	.cfi_offset %rbp, -16
	movq	%rsp, %rbp
	.cfi_def_cfa_register %rbp
	pushq	%r15
	pushq	%r14
	pushq	%r13
	pushq	%r12
	pushq	%rbx
	subq	$168, %rsp
	.cfi_offset %rbx, -56
	.cfi_offset %r12, -48
	.cfi_offset %r13, -40
	.cfi_offset %r14, -32
	.cfi_offset %r15, -24
	movq	%rdx, %r15
	movq	%rsi, %r14
	movq	%rdi, %rbx
	callq	__ZNSt3__16vectorIiNS_9allocatorIiEEEC1Ev
	leaq	24(%rbx), %rdi
	movq	%rdi, -80(%rbp)                 ## 8-byte Spill
	callq	__ZNSt3__16vectorIiNS_9allocatorIiEEEC1Ev
	leaq	48(%rbx), %rdi
	movq	%rdi, -72(%rbp)                 ## 8-byte Spill
	callq	__ZNSt3__16vectorIiNS_9allocatorIiEEEC1Ev
	movl	$4, 72(%rbx)
	movq	%r14, %rdi
	callq	__ZNKSt3__16vectorIiNS_9allocatorIiEEE4sizeEv
	movq	%rax, -88(%rbp)                 ## 8-byte Spill
	movl	%eax, %edi
	callq	__ZL4sqrtIiENSt3__19enable_ifIXsr3std11is_integralIT_EE5valueEdE4typeES2_
	movsd	%xmm0, -56(%rbp)                ## 8-byte Spill
	movq	%r15, -128(%rbp)                ## 8-byte Spill
	movq	%r15, %rdi
	callq	__ZNKSt3__16vectorIiNS_9allocatorIiEEE4sizeEv
	movq	%rax, -96(%rbp)                 ## 8-byte Spill
	leal	(,%rax,4), %r14d
	movslq	%r14d, %rsi
	movl	$0, -184(%rbp)
Ltmp101:
	leaq	-208(%rbp), %rdi
	leaq	-184(%rbp), %rdx
	movq	%rbx, -48(%rbp)                 ## 8-byte Spill
	callq	__ZNSt3__16vectorIiNS_9allocatorIiEEEC1EmRKi
Ltmp102:
## %bb.1:
Ltmp104:
	movl	%r14d, -112(%rbp)               ## 4-byte Spill
	leaq	-208(%rbp), %rsi
	movq	%rbx, %rdi
	callq	__ZNSt3__16vectorIiNS_9allocatorIiEEEaSERKS3_
Ltmp105:
## %bb.2:
	movslq	-88(%rbp), %r14                 ## 4-byte Folded Reload
	movl	$-1, -160(%rbp)
Ltmp107:
	leaq	-184(%rbp), %rdi
	leaq	-160(%rbp), %rdx
	movq	%r14, %rsi
	callq	__ZNSt3__16vectorIiNS_9allocatorIiEEEC1EmRKi
Ltmp108:
## %bb.3:
	movl	$-1, -104(%rbp)
Ltmp110:
	leaq	-160(%rbp), %rdi
	leaq	-104(%rbp), %rdx
	movq	%r14, %rsi
	callq	__ZNSt3__16vectorIiNS_9allocatorIiEEEC1EmRKi
Ltmp111:
## %bb.4:
Ltmp113:
	leaq	-184(%rbp), %rsi
	movq	-80(%rbp), %rdi                 ## 8-byte Reload
	callq	__ZNSt3__16vectorIiNS_9allocatorIiEEEaSERKS3_
Ltmp114:
## %bb.5:
Ltmp115:
	leaq	-160(%rbp), %rsi
	movq	-72(%rbp), %rdi                 ## 8-byte Reload
	callq	__ZNSt3__16vectorIiNS_9allocatorIiEEEaSERKS3_
Ltmp116:
## %bb.6:
	cmpl	$0, -96(%rbp)                   ## 4-byte Folded Reload
	jle	LBB73_13
## %bb.7:
	cvttsd2si	-56(%rbp), %eax         ## 8-byte Folded Reload
	movl	%eax, -108(%rbp)                ## 4-byte Spill
	movq	-88(%rbp), %rax                 ## 8-byte Reload
	addl	%eax, %eax
	movl	%eax, -116(%rbp)                ## 4-byte Spill
	movl	-96(%rbp), %eax                 ## 4-byte Reload
	movq	%rax, -56(%rbp)                 ## 8-byte Spill
	xorl	%r14d, %r14d
	jmp	LBB73_8
	.p2align	4, 0x90
LBB73_42:                               ##   in Loop: Header=BB73_8 Depth=1
	movl	$-2, (%rax)
LBB73_43:                               ##   in Loop: Header=BB73_8 Depth=1
	incq	%r14
	cmpq	%r14, -56(%rbp)                 ## 8-byte Folded Reload
	je	LBB73_13
LBB73_8:                                ## =>This Inner Loop Header: Depth=1
	movslq	72(%rbx), %rax
	movslq	%r14d, %r15
	imulq	%rax, %r15
	movq	-128(%rbp), %rdi                ## 8-byte Reload
	movq	%r14, %rsi
	callq	__ZNSt3__16vectorIiNS_9allocatorIiEEEixEm
	movl	(%rax), %edi
	cmpl	$-1, %edi
	je	LBB73_9
## %bb.29:                              ##   in Loop: Header=BB73_8 Depth=1
	cmpl	-116(%rbp), %edi                ## 4-byte Folded Reload
	jge	LBB73_30
## %bb.37:                              ##   in Loop: Header=BB73_8 Depth=1
	movl	-108(%rbp), %edx                ## 4-byte Reload
	movl	%edx, %esi
	callq	__Z16operator_to_bondiii
	movq	%rax, -104(%rbp)
	leaq	-104(%rbp), %rdi
	xorl	%esi, %esi
	callq	__ZNSt3__15arrayIiLm2EEixEm
	movslq	(%rax), %r12
	movq	-72(%rbp), %rdi                 ## 8-byte Reload
	movq	%r12, %rsi
	callq	__ZNSt3__16vectorIiNS_9allocatorIiEEEixEm
	movslq	(%rax), %r13
	cmpq	$-1, %r13
	je	LBB73_38
## %bb.39:                              ##   in Loop: Header=BB73_8 Depth=1
	movq	-48(%rbp), %rbx                 ## 8-byte Reload
	movq	%rbx, %rdi
	movq	%r13, %rsi
	callq	__ZNSt3__16vectorIiNS_9allocatorIiEEEixEm
	movl	%r15d, (%rax)
	movslq	%r15d, %rsi
	movq	%rbx, %rdi
	callq	__ZNSt3__16vectorIiNS_9allocatorIiEEEixEm
	movl	%r13d, (%rax)
	jmp	LBB73_40
	.p2align	4, 0x90
LBB73_9:                                ##   in Loop: Header=BB73_8 Depth=1
Ltmp123:
	movq	%rbx, %rdi
	movq	%r15, %rsi
	callq	__ZNSt3__16vectorIiNS_9allocatorIiEEE2atEm
Ltmp124:
## %bb.10:                              ##   in Loop: Header=BB73_8 Depth=1
	movl	$-2, (%rax)
	leal	1(%r15), %eax
	movslq	%eax, %rsi
Ltmp125:
	movq	%rbx, %rdi
	callq	__ZNSt3__16vectorIiNS_9allocatorIiEEE2atEm
Ltmp126:
## %bb.11:                              ##   in Loop: Header=BB73_8 Depth=1
	movl	$-2, (%rax)
	leal	2(%r15), %eax
	movslq	%eax, %rsi
Ltmp127:
	movq	%rbx, %rdi
	callq	__ZNSt3__16vectorIiNS_9allocatorIiEEE2atEm
Ltmp128:
## %bb.12:                              ##   in Loop: Header=BB73_8 Depth=1
	movl	$-2, (%rax)
	leal	3(%r15), %eax
	movslq	%eax, %rsi
Ltmp129:
	movq	%rbx, %rdi
	callq	__ZNSt3__16vectorIiNS_9allocatorIiEEE2atEm
Ltmp130:
	jmp	LBB73_42
	.p2align	4, 0x90
LBB73_30:                               ##   in Loop: Header=BB73_8 Depth=1
	movl	-108(%rbp), %edx                ## 4-byte Reload
	movl	%edx, %esi
	callq	__Z16operator_to_bondiii
	movq	%rax, -104(%rbp)
	leaq	-104(%rbp), %rbx
	movq	%rbx, %rdi
	xorl	%esi, %esi
	callq	__ZNSt3__15arrayIiLm2EEixEm
	movslq	(%rax), %r13
	movl	$1, %esi
	movq	%rbx, %rdi
	callq	__ZNSt3__15arrayIiLm2EEixEm
	movslq	(%rax), %r12
	movq	-72(%rbp), %rbx                 ## 8-byte Reload
	movq	%rbx, %rdi
	movq	%r13, %rsi
	callq	__ZNSt3__16vectorIiNS_9allocatorIiEEEixEm
	movslq	(%rax), %rax
	movq	%rbx, %rdi
	movq	%rax, %rbx
	movq	%r12, -64(%rbp)                 ## 8-byte Spill
	movq	%r12, %rsi
	callq	__ZNSt3__16vectorIiNS_9allocatorIiEEEixEm
	movl	(%rax), %r12d
	cmpq	$-1, %rbx
	movq	%r13, -136(%rbp)                ## 8-byte Spill
	je	LBB73_31
## %bb.32:                              ##   in Loop: Header=BB73_8 Depth=1
	movq	-48(%rbp), %r13                 ## 8-byte Reload
	movq	%r13, %rdi
	movq	%rbx, %rsi
	callq	__ZNSt3__16vectorIiNS_9allocatorIiEEEixEm
	movl	%r15d, (%rax)
	movslq	%r15d, %rsi
	movq	%r13, %rdi
	callq	__ZNSt3__16vectorIiNS_9allocatorIiEEEixEm
	movl	%ebx, (%rax)
	jmp	LBB73_33
LBB73_38:                               ##   in Loop: Header=BB73_8 Depth=1
	movq	-80(%rbp), %rdi                 ## 8-byte Reload
	movq	%r12, %rsi
	callq	__ZNSt3__16vectorIiNS_9allocatorIiEEEixEm
	movl	%r15d, (%rax)
	movq	-48(%rbp), %rbx                 ## 8-byte Reload
LBB73_40:                               ##   in Loop: Header=BB73_8 Depth=1
	leal	2(%r15), %r13d
	movq	-72(%rbp), %rdi                 ## 8-byte Reload
	movq	%r12, %rsi
	callq	__ZNSt3__16vectorIiNS_9allocatorIiEEEixEm
	movl	%r13d, (%rax)
	leal	1(%r15), %eax
	movslq	%eax, %rsi
Ltmp118:
	movq	%rbx, %rdi
	callq	__ZNSt3__16vectorIiNS_9allocatorIiEEE2atEm
Ltmp119:
## %bb.41:                              ##   in Loop: Header=BB73_8 Depth=1
	movl	$-2, (%rax)
	leal	3(%r15), %eax
	movslq	%eax, %rsi
Ltmp120:
	movq	%rbx, %rdi
	callq	__ZNSt3__16vectorIiNS_9allocatorIiEEE2atEm
Ltmp121:
	jmp	LBB73_42
LBB73_31:                               ##   in Loop: Header=BB73_8 Depth=1
	movq	-80(%rbp), %rdi                 ## 8-byte Reload
	movq	%r13, %rsi
	callq	__ZNSt3__16vectorIiNS_9allocatorIiEEEixEm
	movl	%r15d, (%rax)
LBB73_33:                               ##   in Loop: Header=BB73_8 Depth=1
	leal	1(%r15), %ebx
	cmpl	$-1, %r12d
	je	LBB73_34
## %bb.35:                              ##   in Loop: Header=BB73_8 Depth=1
	movslq	%r12d, %rsi
	movq	-48(%rbp), %r13                 ## 8-byte Reload
	movq	%r13, %rdi
	callq	__ZNSt3__16vectorIiNS_9allocatorIiEEEixEm
	movl	%ebx, (%rax)
	movslq	%ebx, %rsi
	movq	%r13, %rdi
	callq	__ZNSt3__16vectorIiNS_9allocatorIiEEEixEm
	movl	%r12d, (%rax)
	jmp	LBB73_36
LBB73_34:                               ##   in Loop: Header=BB73_8 Depth=1
	movq	-80(%rbp), %rdi                 ## 8-byte Reload
	movq	-64(%rbp), %rsi                 ## 8-byte Reload
	callq	__ZNSt3__16vectorIiNS_9allocatorIiEEEixEm
	movl	%ebx, (%rax)
LBB73_36:                               ##   in Loop: Header=BB73_8 Depth=1
	leal	2(%r15), %r12d
	movq	-72(%rbp), %rbx                 ## 8-byte Reload
	movq	%rbx, %rdi
	movq	-136(%rbp), %rsi                ## 8-byte Reload
	callq	__ZNSt3__16vectorIiNS_9allocatorIiEEEixEm
	movl	%r12d, (%rax)
	addl	$3, %r15d
	movq	%rbx, %rdi
	movq	-64(%rbp), %rsi                 ## 8-byte Reload
	callq	__ZNSt3__16vectorIiNS_9allocatorIiEEEixEm
	movl	%r15d, (%rax)
	movq	-48(%rbp), %rbx                 ## 8-byte Reload
	jmp	LBB73_43
LBB73_13:
	cmpl	$0, -88(%rbp)                   ## 4-byte Folded Reload
	jle	LBB73_18
## %bb.14:
	movl	-88(%rbp), %r12d                ## 4-byte Reload
	xorl	%ebx, %ebx
	movq	-48(%rbp), %r13                 ## 8-byte Reload
	jmp	LBB73_15
	.p2align	4, 0x90
LBB73_17:                               ##   in Loop: Header=BB73_15 Depth=1
	incq	%rbx
	cmpq	%rbx, %r12
	je	LBB73_18
LBB73_15:                               ## =>This Inner Loop Header: Depth=1
	movq	-80(%rbp), %rdi                 ## 8-byte Reload
	movq	%rbx, %rsi
	callq	__ZNSt3__16vectorIiNS_9allocatorIiEEEixEm
	movslq	(%rax), %r14
	cmpq	$-1, %r14
	je	LBB73_17
## %bb.16:                              ##   in Loop: Header=BB73_15 Depth=1
	movq	-72(%rbp), %rdi                 ## 8-byte Reload
	movq	%rbx, %rsi
	callq	__ZNSt3__16vectorIiNS_9allocatorIiEEEixEm
	movslq	(%rax), %r15
	movq	%r13, %rdi
	movq	%r15, %rsi
	callq	__ZNSt3__16vectorIiNS_9allocatorIiEEEixEm
	movl	%r14d, (%rax)
	movq	%r13, %rdi
	movq	%r14, %rsi
	callq	__ZNSt3__16vectorIiNS_9allocatorIiEEEixEm
	movl	%r15d, (%rax)
	jmp	LBB73_17
LBB73_18:
	xorl	%r14d, %r14d
	movl	$0, %r13d
	movl	$0, %eax
	movq	%rax, -56(%rbp)                 ## 8-byte Spill
	movl	$0, %eax
	movq	%rax, -64(%rbp)                 ## 8-byte Spill
	cmpl	$0, -96(%rbp)                   ## 4-byte Folded Reload
	jle	LBB73_44
## %bb.19:
	movq	-88(%rbp), %rax                 ## 8-byte Reload
	leal	(%rax,%rax), %r15d
	movl	-96(%rbp), %r12d                ## 4-byte Reload
	xorl	%ebx, %ebx
	xorl	%eax, %eax
	movq	%rax, -64(%rbp)                 ## 8-byte Spill
	xorl	%eax, %eax
	movq	%rax, -56(%rbp)                 ## 8-byte Spill
	xorl	%r13d, %r13d
	jmp	LBB73_20
	.p2align	4, 0x90
LBB73_23:                               ##   in Loop: Header=BB73_20 Depth=1
	incl	%r13d
LBB73_57:                               ##   in Loop: Header=BB73_20 Depth=1
	incq	%rbx
	cmpq	%rbx, %r12
	je	LBB73_44
LBB73_20:                               ## =>This Inner Loop Header: Depth=1
	movq	-128(%rbp), %rdi                ## 8-byte Reload
	movq	%rbx, %rsi
	callq	__ZNSt3__16vectorIiNS_9allocatorIiEEEixEm
	movl	(%rax), %ecx
	cmpl	$-1, %ecx
	je	LBB73_57
## %bb.21:                              ##   in Loop: Header=BB73_20 Depth=1
	xorl	%eax, %eax
	cmpl	%r15d, %ecx
	setge	%dl
	testb	$1, %cl
	je	LBB73_53
## %bb.22:                              ##   in Loop: Header=BB73_20 Depth=1
	testb	%dl, %dl
	je	LBB73_23
LBB73_53:                               ##   in Loop: Header=BB73_20 Depth=1
	cmpl	%r15d, %ecx
	jge	LBB73_56
## %bb.54:                              ##   in Loop: Header=BB73_20 Depth=1
	andl	$1, %ecx
	jne	LBB73_56
## %bb.55:                              ##   in Loop: Header=BB73_20 Depth=1
	movq	-56(%rbp), %rax                 ## 8-byte Reload
	incl	%eax
	movq	%rax, -56(%rbp)                 ## 8-byte Spill
	jmp	LBB73_57
LBB73_56:                               ##   in Loop: Header=BB73_20 Depth=1
	movb	%dl, %al
	movq	-64(%rbp), %rcx                 ## 8-byte Reload
	addl	%eax, %ecx
	movq	%rcx, -64(%rbp)                 ## 8-byte Spill
	jmp	LBB73_57
LBB73_44:
	cmpl	$0, -96(%rbp)                   ## 4-byte Folded Reload
	movq	-48(%rbp), %r12                 ## 8-byte Reload
	jle	LBB73_50
## %bb.45:
	movl	-112(%rbp), %eax                ## 4-byte Reload
	testl	%eax, %eax
	movl	$1, %r15d
	cmovgl	%eax, %r15d
	xorl	%ebx, %ebx
	xorl	%r14d, %r14d
	jmp	LBB73_46
	.p2align	4, 0x90
LBB73_48:                               ##   in Loop: Header=BB73_46 Depth=1
	incl	%r14d
LBB73_49:                               ##   in Loop: Header=BB73_46 Depth=1
	incq	%rbx
	cmpq	%rbx, %r15
	je	LBB73_50
LBB73_46:                               ## =>This Inner Loop Header: Depth=1
	movq	%r12, %rdi
	movq	%rbx, %rsi
	callq	__ZNSt3__16vectorIiNS_9allocatorIiEEEixEm
	movslq	(%rax), %rsi
	cmpq	$-2, %rsi
	je	LBB73_49
## %bb.47:                              ##   in Loop: Header=BB73_46 Depth=1
	movq	%r12, %rdi
	callq	__ZNSt3__16vectorIiNS_9allocatorIiEEEixEm
	movl	(%rax), %eax
	cmpq	%rax, %rbx
	je	LBB73_48
## %bb.58:
Ltmp132:
	movq	__ZNSt3__14coutE@GOTPCREL(%rip), %rdi
	leaq	L_.str.9(%rip), %rsi
	callq	__ZNSt3__1lsINS_11char_traitsIcEEEERNS_13basic_ostreamIcT_EES6_PKc
Ltmp133:
## %bb.59:
Ltmp134:
	movq	%rax, %rdi
	movl	%ebx, %esi
	callq	__ZNSt3__113basic_ostreamIcNS_11char_traitsIcEEElsEi
Ltmp135:
## %bb.60:
Ltmp136:
	leaq	L_.str.10(%rip), %rsi
	movq	%rax, %rdi
	callq	__ZNSt3__1lsINS_11char_traitsIcEEEERNS_13basic_ostreamIcT_EES6_PKc
Ltmp137:
## %bb.61:
	movq	%rax, %r14
	movq	-48(%rbp), %r15                 ## 8-byte Reload
	movq	%r15, %rdi
	movq	%rbx, %rsi
	callq	__ZNSt3__16vectorIiNS_9allocatorIiEEEixEm
	movslq	(%rax), %rsi
	movq	%r15, %rdi
	callq	__ZNSt3__16vectorIiNS_9allocatorIiEEEixEm
	movl	(%rax), %esi
Ltmp138:
	movq	%r14, %rdi
	callq	__ZNSt3__113basic_ostreamIcNS_11char_traitsIcEEElsEi
Ltmp139:
## %bb.62:
Ltmp140:
	movq	%rax, %rdi
	callq	__ZNSt3__113basic_ostreamIcNS_11char_traitsIcEEElsEPFRS3_S4_E
Ltmp141:
## %bb.63:
	movl	$16, %edi
	callq	___cxa_allocate_exception
	movq	%rax, %rbx
Ltmp142:
	leaq	L_.str.11(%rip), %rsi
	movq	%rax, %rdi
	callq	__ZNSt16invalid_argumentC1EPKc
Ltmp143:
## %bb.64:
Ltmp145:
	movq	__ZTISt16invalid_argument@GOTPCREL(%rip), %rsi
	movq	__ZNSt16invalid_argumentD1Ev@GOTPCREL(%rip), %rdx
	movq	%rbx, %rdi
	callq	___cxa_throw
Ltmp146:
	jmp	LBB73_77
LBB73_50:
	movq	-64(%rbp), %rcx                 ## 8-byte Reload
	shll	$2, %ecx
	movq	-56(%rbp), %rax                 ## 8-byte Reload
	addl	%r13d, %eax
	leal	(%rcx,%rax,2), %eax
	cmpl	%eax, %r14d
	jne	LBB73_51
## %bb.70:
	leaq	-160(%rbp), %rdi
	callq	__ZNSt3__16vectorIiNS_9allocatorIiEEED1Ev
	leaq	-184(%rbp), %rdi
	callq	__ZNSt3__16vectorIiNS_9allocatorIiEEED1Ev
	leaq	-208(%rbp), %rdi
	callq	__ZNSt3__16vectorIiNS_9allocatorIiEEED1Ev
	addq	$168, %rsp
	popq	%rbx
	popq	%r12
	popq	%r13
	popq	%r14
	popq	%r15
	popq	%rbp
	retq
LBB73_51:
	movl	$16, %edi
	callq	___cxa_allocate_exception
	movq	%rax, %rbx
Ltmp148:
	leaq	L_.str.12(%rip), %rsi
	movq	%rax, %rdi
	callq	__ZNSt16invalid_argumentC1EPKc
Ltmp149:
## %bb.52:
Ltmp151:
	movq	__ZTISt16invalid_argument@GOTPCREL(%rip), %rsi
	movq	__ZNSt16invalid_argumentD1Ev@GOTPCREL(%rip), %rdx
	movq	%rbx, %rdi
	callq	___cxa_throw
Ltmp152:
	jmp	LBB73_77
LBB73_69:
Ltmp153:
	jmp	LBB73_72
LBB73_68:
Ltmp150:
	jmp	LBB73_67
LBB73_66:
Ltmp144:
LBB73_67:
	movq	%rax, %r14
	movq	%rbx, %rdi
	callq	___cxa_free_exception
	jmp	LBB73_73
LBB73_65:
Ltmp147:
	jmp	LBB73_72
LBB73_27:
Ltmp112:
	movq	%rax, %r14
	jmp	LBB73_74
LBB73_26:
Ltmp109:
	movq	%rax, %r14
	jmp	LBB73_75
LBB73_25:
Ltmp106:
	movq	%rax, %r14
	jmp	LBB73_75
LBB73_24:
Ltmp103:
	movq	%rax, %r14
	jmp	LBB73_76
LBB73_71:
Ltmp117:
	jmp	LBB73_72
LBB73_78:
Ltmp122:
	jmp	LBB73_72
LBB73_28:
Ltmp131:
LBB73_72:
	movq	%rax, %r14
LBB73_73:
	leaq	-160(%rbp), %rdi
	callq	__ZNSt3__16vectorIiNS_9allocatorIiEEED1Ev
LBB73_74:
	leaq	-184(%rbp), %rdi
	callq	__ZNSt3__16vectorIiNS_9allocatorIiEEED1Ev
LBB73_75:
	leaq	-208(%rbp), %rdi
	callq	__ZNSt3__16vectorIiNS_9allocatorIiEEED1Ev
LBB73_76:
	movq	-72(%rbp), %rdi                 ## 8-byte Reload
	callq	__ZNSt3__16vectorIiNS_9allocatorIiEEED1Ev
	movq	-80(%rbp), %rdi                 ## 8-byte Reload
	callq	__ZNSt3__16vectorIiNS_9allocatorIiEEED1Ev
	movq	-48(%rbp), %rdi                 ## 8-byte Reload
	callq	__ZNSt3__16vectorIiNS_9allocatorIiEEED1Ev
	movq	%r14, %rdi
	callq	__Unwind_Resume
LBB73_77:
	ud2
Lfunc_end8:
	.cfi_endproc
	.section	__TEXT,__gcc_except_tab
	.p2align	2
GCC_except_table73:
Lexception8:
	.byte	255                             ## @LPStart Encoding = omit
	.byte	255                             ## @TType Encoding = omit
	.byte	1                               ## Call site Encoding = uleb128
	.uleb128 Lcst_end8-Lcst_begin8
Lcst_begin8:
	.uleb128 Ltmp101-Lfunc_begin8           ## >> Call Site 1 <<
	.uleb128 Ltmp102-Ltmp101                ##   Call between Ltmp101 and Ltmp102
	.uleb128 Ltmp103-Lfunc_begin8           ##     jumps to Ltmp103
	.byte	0                               ##   On action: cleanup
	.uleb128 Ltmp104-Lfunc_begin8           ## >> Call Site 2 <<
	.uleb128 Ltmp105-Ltmp104                ##   Call between Ltmp104 and Ltmp105
	.uleb128 Ltmp106-Lfunc_begin8           ##     jumps to Ltmp106
	.byte	0                               ##   On action: cleanup
	.uleb128 Ltmp107-Lfunc_begin8           ## >> Call Site 3 <<
	.uleb128 Ltmp108-Ltmp107                ##   Call between Ltmp107 and Ltmp108
	.uleb128 Ltmp109-Lfunc_begin8           ##     jumps to Ltmp109
	.byte	0                               ##   On action: cleanup
	.uleb128 Ltmp110-Lfunc_begin8           ## >> Call Site 4 <<
	.uleb128 Ltmp111-Ltmp110                ##   Call between Ltmp110 and Ltmp111
	.uleb128 Ltmp112-Lfunc_begin8           ##     jumps to Ltmp112
	.byte	0                               ##   On action: cleanup
	.uleb128 Ltmp113-Lfunc_begin8           ## >> Call Site 5 <<
	.uleb128 Ltmp116-Ltmp113                ##   Call between Ltmp113 and Ltmp116
	.uleb128 Ltmp117-Lfunc_begin8           ##     jumps to Ltmp117
	.byte	0                               ##   On action: cleanup
	.uleb128 Ltmp123-Lfunc_begin8           ## >> Call Site 6 <<
	.uleb128 Ltmp130-Ltmp123                ##   Call between Ltmp123 and Ltmp130
	.uleb128 Ltmp131-Lfunc_begin8           ##     jumps to Ltmp131
	.byte	0                               ##   On action: cleanup
	.uleb128 Ltmp118-Lfunc_begin8           ## >> Call Site 7 <<
	.uleb128 Ltmp121-Ltmp118                ##   Call between Ltmp118 and Ltmp121
	.uleb128 Ltmp122-Lfunc_begin8           ##     jumps to Ltmp122
	.byte	0                               ##   On action: cleanup
	.uleb128 Ltmp132-Lfunc_begin8           ## >> Call Site 8 <<
	.uleb128 Ltmp141-Ltmp132                ##   Call between Ltmp132 and Ltmp141
	.uleb128 Ltmp147-Lfunc_begin8           ##     jumps to Ltmp147
	.byte	0                               ##   On action: cleanup
	.uleb128 Ltmp141-Lfunc_begin8           ## >> Call Site 9 <<
	.uleb128 Ltmp142-Ltmp141                ##   Call between Ltmp141 and Ltmp142
	.byte	0                               ##     has no landing pad
	.byte	0                               ##   On action: cleanup
	.uleb128 Ltmp142-Lfunc_begin8           ## >> Call Site 10 <<
	.uleb128 Ltmp143-Ltmp142                ##   Call between Ltmp142 and Ltmp143
	.uleb128 Ltmp144-Lfunc_begin8           ##     jumps to Ltmp144
	.byte	0                               ##   On action: cleanup
	.uleb128 Ltmp145-Lfunc_begin8           ## >> Call Site 11 <<
	.uleb128 Ltmp146-Ltmp145                ##   Call between Ltmp145 and Ltmp146
	.uleb128 Ltmp147-Lfunc_begin8           ##     jumps to Ltmp147
	.byte	0                               ##   On action: cleanup
	.uleb128 Ltmp146-Lfunc_begin8           ## >> Call Site 12 <<
	.uleb128 Ltmp148-Ltmp146                ##   Call between Ltmp146 and Ltmp148
	.byte	0                               ##     has no landing pad
	.byte	0                               ##   On action: cleanup
	.uleb128 Ltmp148-Lfunc_begin8           ## >> Call Site 13 <<
	.uleb128 Ltmp149-Ltmp148                ##   Call between Ltmp148 and Ltmp149
	.uleb128 Ltmp150-Lfunc_begin8           ##     jumps to Ltmp150
	.byte	0                               ##   On action: cleanup
	.uleb128 Ltmp151-Lfunc_begin8           ## >> Call Site 14 <<
	.uleb128 Ltmp152-Ltmp151                ##   Call between Ltmp151 and Ltmp152
	.uleb128 Ltmp153-Lfunc_begin8           ##     jumps to Ltmp153
	.byte	0                               ##   On action: cleanup
	.uleb128 Ltmp152-Lfunc_begin8           ## >> Call Site 15 <<
	.uleb128 Lfunc_end8-Ltmp152             ##   Call between Ltmp152 and Lfunc_end8
	.byte	0                               ##     has no landing pad
	.byte	0                               ##   On action: cleanup
Lcst_end8:
	.p2align	2
                                        ## -- End function
	.section	__TEXT,__text,regular,pure_instructions
	.p2align	4, 0x90                         ## -- Begin function _ZNSt3__16vectorIiNS_9allocatorIiEEEC1Ev
__ZNSt3__16vectorIiNS_9allocatorIiEEEC1Ev: ## @_ZNSt3__16vectorIiNS_9allocatorIiEEEC1Ev
	.cfi_startproc
## %bb.0:
	pushq	%rbp
	.cfi_def_cfa_offset 16
	.cfi_offset %rbp, -16
	movq	%rsp, %rbp
	.cfi_def_cfa_register %rbp
	callq	__ZNSt3__16vectorIiNS_9allocatorIiEEEC2Ev
	popq	%rbp
	retq
	.cfi_endproc
                                        ## -- End function
	.p2align	4, 0x90                         ## -- Begin function _ZNSt3__16vectorIiNS_9allocatorIiEEEaSERKS3_
__ZNSt3__16vectorIiNS_9allocatorIiEEEaSERKS3_: ## @_ZNSt3__16vectorIiNS_9allocatorIiEEEaSERKS3_
	.cfi_startproc
## %bb.0:
	cmpq	%rsi, %rdi
	je	LBB75_2
## %bb.1:
	pushq	%rbp
	.cfi_def_cfa_offset 16
	.cfi_offset %rbp, -16
	movq	%rsp, %rbp
	.cfi_def_cfa_register %rbp
	movq	(%rsi), %rax
	movq	8(%rsi), %rdx
	movq	%rax, %rsi
	callq	__ZNSt3__16vectorIiNS_9allocatorIiEEE6assignIPiEENS_9enable_ifIXaasr27__is_cpp17_forward_iteratorIT_EE5valuesr16is_constructibleIiNS_15iterator_traitsIS7_E9referenceEEE5valueEvE4typeES7_S7_
	popq	%rbp
LBB75_2:
	retq
	.cfi_endproc
                                        ## -- End function
	.globl	__ZNSt3__16vectorIiNS_9allocatorIiEEE2atEm ## -- Begin function _ZNSt3__16vectorIiNS_9allocatorIiEEE2atEm
	.weak_def_can_be_hidden	__ZNSt3__16vectorIiNS_9allocatorIiEEE2atEm
	.p2align	4, 0x90
__ZNSt3__16vectorIiNS_9allocatorIiEEE2atEm: ## @_ZNSt3__16vectorIiNS_9allocatorIiEEE2atEm
	.cfi_startproc
## %bb.0:
	pushq	%rbp
	.cfi_def_cfa_offset 16
	.cfi_offset %rbp, -16
	movq	%rsp, %rbp
	.cfi_def_cfa_register %rbp
	pushq	%r14
	pushq	%rbx
	.cfi_offset %rbx, -32
	.cfi_offset %r14, -24
	movq	%rsi, %rbx
	movq	%rdi, %r14
	callq	__ZNKSt3__16vectorIiNS_9allocatorIiEEE4sizeEv
	cmpq	%rbx, %rax
	jbe	LBB76_2
## %bb.1:
	shlq	$2, %rbx
	addq	(%r14), %rbx
	movq	%rbx, %rax
	popq	%rbx
	popq	%r14
	popq	%rbp
	retq
LBB76_2:
	movq	%r14, %rdi
	callq	__ZNKSt3__120__vector_base_commonILb1EE20__throw_out_of_rangeEv
	.cfi_endproc
                                        ## -- End function
	.p2align	4, 0x90                         ## -- Begin function _ZNSt16invalid_argumentC1EPKc
__ZNSt16invalid_argumentC1EPKc:         ## @_ZNSt16invalid_argumentC1EPKc
	.cfi_startproc
## %bb.0:
	pushq	%rbp
	.cfi_def_cfa_offset 16
	.cfi_offset %rbp, -16
	movq	%rsp, %rbp
	.cfi_def_cfa_register %rbp
	callq	__ZNSt16invalid_argumentC2EPKc
	popq	%rbp
	retq
	.cfi_endproc
                                        ## -- End function
	.p2align	4, 0x90                         ## -- Begin function _ZNSt3__16vectorIiNS_9allocatorIiEEEC2Ev
__ZNSt3__16vectorIiNS_9allocatorIiEEEC2Ev: ## @_ZNSt3__16vectorIiNS_9allocatorIiEEEC2Ev
	.cfi_startproc
## %bb.0:
	pushq	%rbp
	.cfi_def_cfa_offset 16
	.cfi_offset %rbp, -16
	movq	%rsp, %rbp
	.cfi_def_cfa_register %rbp
	callq	__ZNSt3__113__vector_baseIiNS_9allocatorIiEEEC2Ev
	popq	%rbp
	retq
	.cfi_endproc
                                        ## -- End function
	.p2align	4, 0x90                         ## -- Begin function _ZNSt3__113__vector_baseIiNS_9allocatorIiEEEC2Ev
__ZNSt3__113__vector_baseIiNS_9allocatorIiEEEC2Ev: ## @_ZNSt3__113__vector_baseIiNS_9allocatorIiEEEC2Ev
	.cfi_startproc
## %bb.0:
	pushq	%rbp
	.cfi_def_cfa_offset 16
	.cfi_offset %rbp, -16
	movq	%rsp, %rbp
	.cfi_def_cfa_register %rbp
	leaq	16(%rdi), %rax
	movq	$0, 8(%rdi)
	movq	$0, (%rdi)
	movq	%rax, %rdi
	callq	__ZNSt3__117__compressed_pairIPiNS_9allocatorIiEEEC1IDnNS_18__default_init_tagEEEOT_OT0_
	popq	%rbp
	retq
	.cfi_endproc
                                        ## -- End function
	.private_extern	___clang_call_terminate ## -- Begin function __clang_call_terminate
	.globl	___clang_call_terminate
	.weak_def_can_be_hidden	___clang_call_terminate
	.p2align	4, 0x90
___clang_call_terminate:                ## @__clang_call_terminate
## %bb.0:
	pushq	%rax
	callq	___cxa_begin_catch
	callq	__ZSt9terminatev
                                        ## -- End function
	.p2align	4, 0x90                         ## -- Begin function _ZNSt3__117__compressed_pairIPiNS_9allocatorIiEEEC1IDnNS_18__default_init_tagEEEOT_OT0_
__ZNSt3__117__compressed_pairIPiNS_9allocatorIiEEEC1IDnNS_18__default_init_tagEEEOT_OT0_: ## @_ZNSt3__117__compressed_pairIPiNS_9allocatorIiEEEC1IDnNS_18__default_init_tagEEEOT_OT0_
	.cfi_startproc
## %bb.0:
	pushq	%rbp
	.cfi_def_cfa_offset 16
	.cfi_offset %rbp, -16
	movq	%rsp, %rbp
	.cfi_def_cfa_register %rbp
	callq	__ZNSt3__117__compressed_pairIPiNS_9allocatorIiEEEC2IDnNS_18__default_init_tagEEEOT_OT0_
	popq	%rbp
	retq
	.cfi_endproc
                                        ## -- End function
	.p2align	4, 0x90                         ## -- Begin function _ZNSt3__117__compressed_pairIPiNS_9allocatorIiEEEC2IDnNS_18__default_init_tagEEEOT_OT0_
__ZNSt3__117__compressed_pairIPiNS_9allocatorIiEEEC2IDnNS_18__default_init_tagEEEOT_OT0_: ## @_ZNSt3__117__compressed_pairIPiNS_9allocatorIiEEEC2IDnNS_18__default_init_tagEEEOT_OT0_
	.cfi_startproc
## %bb.0:
	pushq	%rbp
	.cfi_def_cfa_offset 16
	.cfi_offset %rbp, -16
	movq	%rsp, %rbp
	.cfi_def_cfa_register %rbp
	callq	__ZNSt3__122__compressed_pair_elemIPiLi0ELb0EEC2IDnvEEOT_
	popq	%rbp
	retq
	.cfi_endproc
                                        ## -- End function
	.p2align	4, 0x90                         ## -- Begin function _ZNSt3__122__compressed_pair_elemIPiLi0ELb0EEC2IDnvEEOT_
__ZNSt3__122__compressed_pair_elemIPiLi0ELb0EEC2IDnvEEOT_: ## @_ZNSt3__122__compressed_pair_elemIPiLi0ELb0EEC2IDnvEEOT_
	.cfi_startproc
## %bb.0:
	pushq	%rbp
	.cfi_def_cfa_offset 16
	.cfi_offset %rbp, -16
	movq	%rsp, %rbp
	.cfi_def_cfa_register %rbp
	movq	$0, (%rdi)
	popq	%rbp
	retq
	.cfi_endproc
                                        ## -- End function
	.globl	__ZNSt3__16vectorIiNS_9allocatorIiEEE6assignIPiEENS_9enable_ifIXaasr27__is_cpp17_forward_iteratorIT_EE5valuesr16is_constructibleIiNS_15iterator_traitsIS7_E9referenceEEE5valueEvE4typeES7_S7_ ## -- Begin function _ZNSt3__16vectorIiNS_9allocatorIiEEE6assignIPiEENS_9enable_ifIXaasr27__is_cpp17_forward_iteratorIT_EE5valuesr16is_constructibleIiNS_15iterator_traitsIS7_E9referenceEEE5valueEvE4typeES7_S7_
	.weak_def_can_be_hidden	__ZNSt3__16vectorIiNS_9allocatorIiEEE6assignIPiEENS_9enable_ifIXaasr27__is_cpp17_forward_iteratorIT_EE5valuesr16is_constructibleIiNS_15iterator_traitsIS7_E9referenceEEE5valueEvE4typeES7_S7_
	.p2align	4, 0x90
__ZNSt3__16vectorIiNS_9allocatorIiEEE6assignIPiEENS_9enable_ifIXaasr27__is_cpp17_forward_iteratorIT_EE5valuesr16is_constructibleIiNS_15iterator_traitsIS7_E9referenceEEE5valueEvE4typeES7_S7_: ## @_ZNSt3__16vectorIiNS_9allocatorIiEEE6assignIPiEENS_9enable_ifIXaasr27__is_cpp17_forward_iteratorIT_EE5valuesr16is_constructibleIiNS_15iterator_traitsIS7_E9referenceEEE5valueEvE4typeES7_S7_
	.cfi_startproc
## %bb.0:
	pushq	%rbp
	.cfi_def_cfa_offset 16
	.cfi_offset %rbp, -16
	movq	%rsp, %rbp
	.cfi_def_cfa_register %rbp
	pushq	%r15
	pushq	%r14
	pushq	%r13
	pushq	%r12
	pushq	%rbx
	subq	$24, %rsp
	.cfi_offset %rbx, -56
	.cfi_offset %r12, -48
	.cfi_offset %r13, -40
	.cfi_offset %r14, -32
	.cfi_offset %r15, -24
	movq	%rdx, %r14
	movq	%rsi, %r12
	movq	%rdi, %rbx
	movq	%rsi, %rdi
	movq	%rdx, %rsi
	callq	__ZNSt3__1L8distanceIPiEENS_15iterator_traitsIT_E15difference_typeES3_S3_
	movq	%rax, %r15
	movq	%rbx, %rdi
	callq	__ZNKSt3__16vectorIiNS_9allocatorIiEEE8capacityEv
	cmpq	%rax, %r15
	jbe	LBB84_1
## %bb.7:
	movq	%rbx, %rdi
	callq	__ZNSt3__16vectorIiNS_9allocatorIiEEE13__vdeallocateEv
	movq	%rbx, %rdi
	movq	%r15, %rsi
	callq	__ZNKSt3__16vectorIiNS_9allocatorIiEEE11__recommendEm
	movq	%rbx, %rdi
	movq	%rax, %rsi
	callq	__ZNSt3__16vectorIiNS_9allocatorIiEEE11__vallocateEm
	movq	%rbx, %rdi
	movq	%r12, %rsi
	jmp	LBB84_8
LBB84_1:
	movq	%r14, -56(%rbp)
	movq	%rbx, %rdi
	callq	__ZNKSt3__16vectorIiNS_9allocatorIiEEE4sizeEv
	cmpq	%rax, %r15
	jbe	LBB84_2
## %bb.3:
	movq	%r12, -56(%rbp)
	leaq	-56(%rbp), %rdi
	movq	%rax, %rsi
	callq	__ZNSt3__1L7advanceIPimEEvRT_T0_
	movb	$1, %al
	movl	%eax, -44(%rbp)                 ## 4-byte Spill
	jmp	LBB84_4
LBB84_2:
	movl	$0, -44(%rbp)                   ## 4-byte Folded Spill
LBB84_4:
	movq	-56(%rbp), %r13
	movq	(%rbx), %rdx
	movq	%r12, %rdi
	movq	%r13, %rsi
	callq	__ZNSt3__1L4copyIPiS1_EET0_T_S3_S2_
	cmpb	$0, -44(%rbp)                   ## 1-byte Folded Reload
	je	LBB84_6
## %bb.5:
	movq	%rbx, %rdi
	callq	__ZNKSt3__16vectorIiNS_9allocatorIiEEE4sizeEv
	subq	%rax, %r15
	movq	%rbx, %rdi
	movq	%r13, %rsi
LBB84_8:
	movq	%r14, %rdx
	movq	%r15, %rcx
	callq	__ZNSt3__16vectorIiNS_9allocatorIiEEE18__construct_at_endIPiEENS_9enable_ifIXsr27__is_cpp17_forward_iteratorIT_EE5valueEvE4typeES7_S7_m
	jmp	LBB84_9
LBB84_6:
	movq	%rbx, %rdi
	movq	%rax, %rsi
	callq	__ZNSt3__16vectorIiNS_9allocatorIiEEE17__destruct_at_endEPi
LBB84_9:
	addq	$24, %rsp
	popq	%rbx
	popq	%r12
	popq	%r13
	popq	%r14
	popq	%r15
	popq	%rbp
	retq
	.cfi_endproc
                                        ## -- End function
	.p2align	4, 0x90                         ## -- Begin function _ZNSt3__1L8distanceIPiEENS_15iterator_traitsIT_E15difference_typeES3_S3_
__ZNSt3__1L8distanceIPiEENS_15iterator_traitsIT_E15difference_typeES3_S3_: ## @_ZNSt3__1L8distanceIPiEENS_15iterator_traitsIT_E15difference_typeES3_S3_
	.cfi_startproc
## %bb.0:
	pushq	%rbp
	.cfi_def_cfa_offset 16
	.cfi_offset %rbp, -16
	movq	%rsp, %rbp
	.cfi_def_cfa_register %rbp
	callq	__ZNSt3__1L10__distanceIPiEENS_15iterator_traitsIT_E15difference_typeES3_S3_NS_26random_access_iterator_tagE
	popq	%rbp
	retq
	.cfi_endproc
                                        ## -- End function
	.p2align	4, 0x90                         ## -- Begin function _ZNKSt3__16vectorIiNS_9allocatorIiEEE8capacityEv
__ZNKSt3__16vectorIiNS_9allocatorIiEEE8capacityEv: ## @_ZNKSt3__16vectorIiNS_9allocatorIiEEE8capacityEv
	.cfi_startproc
## %bb.0:
	pushq	%rbp
	.cfi_def_cfa_offset 16
	.cfi_offset %rbp, -16
	movq	%rsp, %rbp
	.cfi_def_cfa_register %rbp
	callq	__ZNKSt3__113__vector_baseIiNS_9allocatorIiEEE8capacityEv
	popq	%rbp
	retq
	.cfi_endproc
                                        ## -- End function
	.p2align	4, 0x90                         ## -- Begin function _ZNSt3__1L7advanceIPimEEvRT_T0_
__ZNSt3__1L7advanceIPimEEvRT_T0_:       ## @_ZNSt3__1L7advanceIPimEEvRT_T0_
	.cfi_startproc
## %bb.0:
	pushq	%rbp
	.cfi_def_cfa_offset 16
	.cfi_offset %rbp, -16
	movq	%rsp, %rbp
	.cfi_def_cfa_register %rbp
	callq	__ZNSt3__1L9__advanceIPiEEvRT_NS_15iterator_traitsIS2_E15difference_typeENS_26random_access_iterator_tagE
	popq	%rbp
	retq
	.cfi_endproc
                                        ## -- End function
	.p2align	4, 0x90                         ## -- Begin function _ZNSt3__1L4copyIPiS1_EET0_T_S3_S2_
__ZNSt3__1L4copyIPiS1_EET0_T_S3_S2_:    ## @_ZNSt3__1L4copyIPiS1_EET0_T_S3_S2_
	.cfi_startproc
## %bb.0:
	pushq	%rbp
	.cfi_def_cfa_offset 16
	.cfi_offset %rbp, -16
	movq	%rsp, %rbp
	.cfi_def_cfa_register %rbp
	callq	__ZNSt3__1L6__copyIiiEENS_9enable_ifIXaasr7is_sameINS_12remove_constIT_E4typeET0_EE5valuesr28is_trivially_copy_assignableIS6_EE5valueEPS6_E4typeEPS3_SA_S7_
	popq	%rbp
	retq
	.cfi_endproc
                                        ## -- End function
	.globl	__ZNSt3__16vectorIiNS_9allocatorIiEEE18__construct_at_endIPiEENS_9enable_ifIXsr27__is_cpp17_forward_iteratorIT_EE5valueEvE4typeES7_S7_m ## -- Begin function _ZNSt3__16vectorIiNS_9allocatorIiEEE18__construct_at_endIPiEENS_9enable_ifIXsr27__is_cpp17_forward_iteratorIT_EE5valueEvE4typeES7_S7_m
	.weak_def_can_be_hidden	__ZNSt3__16vectorIiNS_9allocatorIiEEE18__construct_at_endIPiEENS_9enable_ifIXsr27__is_cpp17_forward_iteratorIT_EE5valueEvE4typeES7_S7_m
	.p2align	4, 0x90
__ZNSt3__16vectorIiNS_9allocatorIiEEE18__construct_at_endIPiEENS_9enable_ifIXsr27__is_cpp17_forward_iteratorIT_EE5valueEvE4typeES7_S7_m: ## @_ZNSt3__16vectorIiNS_9allocatorIiEEE18__construct_at_endIPiEENS_9enable_ifIXsr27__is_cpp17_forward_iteratorIT_EE5valueEvE4typeES7_S7_m
	.cfi_startproc
## %bb.0:
	pushq	%rbp
	.cfi_def_cfa_offset 16
	.cfi_offset %rbp, -16
	movq	%rsp, %rbp
	.cfi_def_cfa_register %rbp
	pushq	%r15
	pushq	%r14
	pushq	%rbx
	subq	$24, %rsp
	.cfi_offset %rbx, -40
	.cfi_offset %r14, -32
	.cfi_offset %r15, -24
	movq	%rdx, %r14
	movq	%rsi, %rbx
	movq	%rdi, %rsi
	leaq	-48(%rbp), %r15
	movq	%r15, %rdi
	movq	%rcx, %rdx
	callq	__ZNSt3__16vectorIiNS_9allocatorIiEEE21_ConstructTransactionC1ERS3_m
	leaq	-40(%rbp), %rdx
	movq	%rbx, %rdi
	movq	%r14, %rsi
	callq	__ZNSt3__1L25__construct_range_forwardINS_9allocatorIiEEiiiivEEvRT_PT0_S6_RPT1_
	movq	%r15, %rdi
	callq	__ZNSt3__16vectorIiNS_9allocatorIiEEE21_ConstructTransactionD1Ev
	addq	$24, %rsp
	popq	%rbx
	popq	%r14
	popq	%r15
	popq	%rbp
	retq
	.cfi_endproc
                                        ## -- End function
	.p2align	4, 0x90                         ## -- Begin function _ZNSt3__16vectorIiNS_9allocatorIiEEE17__destruct_at_endEPi
__ZNSt3__16vectorIiNS_9allocatorIiEEE17__destruct_at_endEPi: ## @_ZNSt3__16vectorIiNS_9allocatorIiEEE17__destruct_at_endEPi
	.cfi_startproc
## %bb.0:
	pushq	%rbp
	.cfi_def_cfa_offset 16
	.cfi_offset %rbp, -16
	movq	%rsp, %rbp
	.cfi_def_cfa_register %rbp
	callq	__ZNSt3__113__vector_baseIiNS_9allocatorIiEEE17__destruct_at_endEPi
	popq	%rbp
	retq
	.cfi_endproc
                                        ## -- End function
	.globl	__ZNSt3__16vectorIiNS_9allocatorIiEEE13__vdeallocateEv ## -- Begin function _ZNSt3__16vectorIiNS_9allocatorIiEEE13__vdeallocateEv
	.weak_def_can_be_hidden	__ZNSt3__16vectorIiNS_9allocatorIiEEE13__vdeallocateEv
	.p2align	4, 0x90
__ZNSt3__16vectorIiNS_9allocatorIiEEE13__vdeallocateEv: ## @_ZNSt3__16vectorIiNS_9allocatorIiEEE13__vdeallocateEv
	.cfi_startproc
## %bb.0:
	pushq	%rbp
	.cfi_def_cfa_offset 16
	.cfi_offset %rbp, -16
	movq	%rsp, %rbp
	.cfi_def_cfa_register %rbp
	pushq	%r14
	pushq	%rbx
	.cfi_offset %rbx, -32
	.cfi_offset %r14, -24
	cmpq	$0, (%rdi)
	je	LBB91_2
## %bb.1:
	movq	%rdi, %rbx
	callq	__ZNSt3__16vectorIiNS_9allocatorIiEEE5clearEv
	movq	(%rbx), %r14
	movq	%rbx, %rdi
	callq	__ZNKSt3__16vectorIiNS_9allocatorIiEEE8capacityEv
	movq	%r14, %rdi
	movq	%rax, %rsi
	callq	__ZNSt3__116allocator_traitsINS_9allocatorIiEEE10deallocateERS2_Pim
	movq	%rbx, %rdi
	callq	__ZNSt3__113__vector_baseIiNS_9allocatorIiEEE9__end_capEv
	movq	$0, (%rax)
	movq	$0, (%rbx)
	movq	$0, 8(%rbx)
LBB91_2:
	popq	%rbx
	popq	%r14
	popq	%rbp
	retq
	.cfi_endproc
                                        ## -- End function
	.globl	__ZNSt3__16vectorIiNS_9allocatorIiEEE11__vallocateEm ## -- Begin function _ZNSt3__16vectorIiNS_9allocatorIiEEE11__vallocateEm
	.weak_def_can_be_hidden	__ZNSt3__16vectorIiNS_9allocatorIiEEE11__vallocateEm
	.p2align	4, 0x90
__ZNSt3__16vectorIiNS_9allocatorIiEEE11__vallocateEm: ## @_ZNSt3__16vectorIiNS_9allocatorIiEEE11__vallocateEm
	.cfi_startproc
## %bb.0:
	pushq	%rbp
	.cfi_def_cfa_offset 16
	.cfi_offset %rbp, -16
	movq	%rsp, %rbp
	.cfi_def_cfa_register %rbp
	pushq	%r14
	pushq	%rbx
	.cfi_offset %rbx, -32
	.cfi_offset %r14, -24
	movq	%rsi, %r14
	movq	%rdi, %rbx
	callq	__ZNKSt3__16vectorIiNS_9allocatorIiEEE8max_sizeEv
	cmpq	%r14, %rax
	jb	LBB92_2
## %bb.1:
	movq	%r14, %rdi
	callq	__ZNSt3__116allocator_traitsINS_9allocatorIiEEE8allocateERS2_m
	movq	%rax, 8(%rbx)
	movq	%rax, (%rbx)
	leaq	(%rax,%r14,4), %r14
	movq	%rbx, %rdi
	callq	__ZNSt3__113__vector_baseIiNS_9allocatorIiEEE9__end_capEv
	movq	%r14, (%rax)
	popq	%rbx
	popq	%r14
	popq	%rbp
	retq
LBB92_2:
	movq	%rbx, %rdi
	callq	__ZNKSt3__120__vector_base_commonILb1EE20__throw_length_errorEv
	.cfi_endproc
                                        ## -- End function
	.p2align	4, 0x90                         ## -- Begin function _ZNKSt3__16vectorIiNS_9allocatorIiEEE11__recommendEm
__ZNKSt3__16vectorIiNS_9allocatorIiEEE11__recommendEm: ## @_ZNKSt3__16vectorIiNS_9allocatorIiEEE11__recommendEm
	.cfi_startproc
## %bb.0:
	pushq	%rbp
	.cfi_def_cfa_offset 16
	.cfi_offset %rbp, -16
	movq	%rsp, %rbp
	.cfi_def_cfa_register %rbp
	pushq	%r14
	pushq	%rbx
	subq	$16, %rsp
	.cfi_offset %rbx, -32
	.cfi_offset %r14, -24
	movq	%rdi, %r14
	movq	%rsi, -24(%rbp)
	callq	__ZNKSt3__16vectorIiNS_9allocatorIiEEE8max_sizeEv
	cmpq	%rax, -24(%rbp)
	ja	LBB93_4
## %bb.1:
	movq	%rax, %rbx
	movq	%r14, %rdi
	callq	__ZNKSt3__16vectorIiNS_9allocatorIiEEE8capacityEv
	movq	%rbx, %rcx
	shrq	%rcx
	cmpq	%rcx, %rax
	jae	LBB93_3
## %bb.2:
	addq	%rax, %rax
	movq	%rax, -32(%rbp)
	leaq	-32(%rbp), %rdi
	leaq	-24(%rbp), %rsi
	callq	__ZNSt3__1L3maxImEERKT_S3_S3_
	movq	(%rax), %rbx
LBB93_3:
	movq	%rbx, %rax
	addq	$16, %rsp
	popq	%rbx
	popq	%r14
	popq	%rbp
	retq
LBB93_4:
	movq	%r14, %rdi
	callq	__ZNKSt3__120__vector_base_commonILb1EE20__throw_length_errorEv
	.cfi_endproc
                                        ## -- End function
	.p2align	4, 0x90                         ## -- Begin function _ZNSt3__1L10__distanceIPiEENS_15iterator_traitsIT_E15difference_typeES3_S3_NS_26random_access_iterator_tagE
__ZNSt3__1L10__distanceIPiEENS_15iterator_traitsIT_E15difference_typeES3_S3_NS_26random_access_iterator_tagE: ## @_ZNSt3__1L10__distanceIPiEENS_15iterator_traitsIT_E15difference_typeES3_S3_NS_26random_access_iterator_tagE
	.cfi_startproc
## %bb.0:
	pushq	%rbp
	.cfi_def_cfa_offset 16
	.cfi_offset %rbp, -16
	movq	%rsp, %rbp
	.cfi_def_cfa_register %rbp
	movq	%rsi, %rax
	subq	%rdi, %rax
	sarq	$2, %rax
	popq	%rbp
	retq
	.cfi_endproc
                                        ## -- End function
	.p2align	4, 0x90                         ## -- Begin function _ZNKSt3__113__vector_baseIiNS_9allocatorIiEEE8capacityEv
__ZNKSt3__113__vector_baseIiNS_9allocatorIiEEE8capacityEv: ## @_ZNKSt3__113__vector_baseIiNS_9allocatorIiEEE8capacityEv
	.cfi_startproc
## %bb.0:
	pushq	%rbp
	.cfi_def_cfa_offset 16
	.cfi_offset %rbp, -16
	movq	%rsp, %rbp
	.cfi_def_cfa_register %rbp
	pushq	%rbx
	pushq	%rax
	.cfi_offset %rbx, -24
	movq	%rdi, %rbx
	callq	__ZNKSt3__113__vector_baseIiNS_9allocatorIiEEE9__end_capEv
	movq	(%rax), %rax
	subq	(%rbx), %rax
	sarq	$2, %rax
	addq	$8, %rsp
	popq	%rbx
	popq	%rbp
	retq
	.cfi_endproc
                                        ## -- End function
	.p2align	4, 0x90                         ## -- Begin function _ZNKSt3__113__vector_baseIiNS_9allocatorIiEEE9__end_capEv
__ZNKSt3__113__vector_baseIiNS_9allocatorIiEEE9__end_capEv: ## @_ZNKSt3__113__vector_baseIiNS_9allocatorIiEEE9__end_capEv
	.cfi_startproc
## %bb.0:
	pushq	%rbp
	.cfi_def_cfa_offset 16
	.cfi_offset %rbp, -16
	movq	%rsp, %rbp
	.cfi_def_cfa_register %rbp
	addq	$16, %rdi
	callq	__ZNKSt3__117__compressed_pairIPiNS_9allocatorIiEEE5firstEv
	popq	%rbp
	retq
	.cfi_endproc
                                        ## -- End function
	.p2align	4, 0x90                         ## -- Begin function _ZNKSt3__117__compressed_pairIPiNS_9allocatorIiEEE5firstEv
__ZNKSt3__117__compressed_pairIPiNS_9allocatorIiEEE5firstEv: ## @_ZNKSt3__117__compressed_pairIPiNS_9allocatorIiEEE5firstEv
	.cfi_startproc
## %bb.0:
	pushq	%rbp
	.cfi_def_cfa_offset 16
	.cfi_offset %rbp, -16
	movq	%rsp, %rbp
	.cfi_def_cfa_register %rbp
	callq	__ZNKSt3__122__compressed_pair_elemIPiLi0ELb0EE5__getEv
	popq	%rbp
	retq
	.cfi_endproc
                                        ## -- End function
	.p2align	4, 0x90                         ## -- Begin function _ZNKSt3__122__compressed_pair_elemIPiLi0ELb0EE5__getEv
__ZNKSt3__122__compressed_pair_elemIPiLi0ELb0EE5__getEv: ## @_ZNKSt3__122__compressed_pair_elemIPiLi0ELb0EE5__getEv
	.cfi_startproc
## %bb.0:
	pushq	%rbp
	.cfi_def_cfa_offset 16
	.cfi_offset %rbp, -16
	movq	%rsp, %rbp
	.cfi_def_cfa_register %rbp
	movq	%rdi, %rax
	popq	%rbp
	retq
	.cfi_endproc
                                        ## -- End function
	.p2align	4, 0x90                         ## -- Begin function _ZNSt3__1L9__advanceIPiEEvRT_NS_15iterator_traitsIS2_E15difference_typeENS_26random_access_iterator_tagE
__ZNSt3__1L9__advanceIPiEEvRT_NS_15iterator_traitsIS2_E15difference_typeENS_26random_access_iterator_tagE: ## @_ZNSt3__1L9__advanceIPiEEvRT_NS_15iterator_traitsIS2_E15difference_typeENS_26random_access_iterator_tagE
	.cfi_startproc
## %bb.0:
	pushq	%rbp
	.cfi_def_cfa_offset 16
	.cfi_offset %rbp, -16
	movq	%rsp, %rbp
	.cfi_def_cfa_register %rbp
	shlq	$2, %rsi
	addq	%rsi, (%rdi)
	popq	%rbp
	retq
	.cfi_endproc
                                        ## -- End function
	.p2align	4, 0x90                         ## -- Begin function _ZNSt3__1L6__copyIiiEENS_9enable_ifIXaasr7is_sameINS_12remove_constIT_E4typeET0_EE5valuesr28is_trivially_copy_assignableIS6_EE5valueEPS6_E4typeEPS3_SA_S7_
__ZNSt3__1L6__copyIiiEENS_9enable_ifIXaasr7is_sameINS_12remove_constIT_E4typeET0_EE5valuesr28is_trivially_copy_assignableIS6_EE5valueEPS6_E4typeEPS3_SA_S7_: ## @_ZNSt3__1L6__copyIiiEENS_9enable_ifIXaasr7is_sameINS_12remove_constIT_E4typeET0_EE5valuesr28is_trivially_copy_assignableIS6_EE5valueEPS6_E4typeEPS3_SA_S7_
	.cfi_startproc
## %bb.0:
	pushq	%rbp
	.cfi_def_cfa_offset 16
	.cfi_offset %rbp, -16
	movq	%rsp, %rbp
	.cfi_def_cfa_register %rbp
	pushq	%r14
	pushq	%rbx
	.cfi_offset %rbx, -32
	.cfi_offset %r14, -24
	movq	%rdx, %r14
	movq	%rsi, %rbx
	subq	%rdi, %rbx
	je	LBB100_2
## %bb.1:
	movq	%rdi, %rsi
	movq	%r14, %rdi
	movq	%rbx, %rdx
	callq	_memmove
LBB100_2:
	addq	%rbx, %r14
	movq	%r14, %rax
	popq	%rbx
	popq	%r14
	popq	%rbp
	retq
	.cfi_endproc
                                        ## -- End function
	.globl	__ZNSt3__16vectorIiNS_9allocatorIiEEE21_ConstructTransactionC1ERS3_m ## -- Begin function _ZNSt3__16vectorIiNS_9allocatorIiEEE21_ConstructTransactionC1ERS3_m
	.weak_def_can_be_hidden	__ZNSt3__16vectorIiNS_9allocatorIiEEE21_ConstructTransactionC1ERS3_m
	.p2align	4, 0x90
__ZNSt3__16vectorIiNS_9allocatorIiEEE21_ConstructTransactionC1ERS3_m: ## @_ZNSt3__16vectorIiNS_9allocatorIiEEE21_ConstructTransactionC1ERS3_m
	.cfi_startproc
## %bb.0:
	pushq	%rbp
	.cfi_def_cfa_offset 16
	.cfi_offset %rbp, -16
	movq	%rsp, %rbp
	.cfi_def_cfa_register %rbp
	callq	__ZNSt3__16vectorIiNS_9allocatorIiEEE21_ConstructTransactionC2ERS3_m
	popq	%rbp
	retq
	.cfi_endproc
                                        ## -- End function
	.p2align	4, 0x90                         ## -- Begin function _ZNSt3__1L25__construct_range_forwardINS_9allocatorIiEEiiiivEEvRT_PT0_S6_RPT1_
__ZNSt3__1L25__construct_range_forwardINS_9allocatorIiEEiiiivEEvRT_PT0_S6_RPT1_: ## @_ZNSt3__1L25__construct_range_forwardINS_9allocatorIiEEiiiivEEvRT_PT0_S6_RPT1_
	.cfi_startproc
## %bb.0:
	pushq	%rbp
	.cfi_def_cfa_offset 16
	.cfi_offset %rbp, -16
	movq	%rsp, %rbp
	.cfi_def_cfa_register %rbp
	pushq	%r14
	pushq	%rbx
	.cfi_offset %rbx, -32
	.cfi_offset %r14, -24
	movq	%rsi, %rbx
	subq	%rdi, %rbx
	testq	%rbx, %rbx
	jle	LBB102_2
## %bb.1:
	movq	%rdx, %r14
	movq	%rdi, %rsi
	movq	(%rdx), %rdi
	movq	%rbx, %rdx
	callq	_memcpy
	addq	%rbx, (%r14)
LBB102_2:
	popq	%rbx
	popq	%r14
	popq	%rbp
	retq
	.cfi_endproc
                                        ## -- End function
	.p2align	4, 0x90                         ## -- Begin function _ZNSt3__113__vector_baseIiNS_9allocatorIiEEE7__allocEv
__ZNSt3__113__vector_baseIiNS_9allocatorIiEEE7__allocEv: ## @_ZNSt3__113__vector_baseIiNS_9allocatorIiEEE7__allocEv
	.cfi_startproc
## %bb.0:
	pushq	%rbp
	.cfi_def_cfa_offset 16
	.cfi_offset %rbp, -16
	movq	%rsp, %rbp
	.cfi_def_cfa_register %rbp
	addq	$16, %rdi
	callq	__ZNSt3__117__compressed_pairIPiNS_9allocatorIiEEE6secondEv
	popq	%rbp
	retq
	.cfi_endproc
                                        ## -- End function
	.globl	__ZNSt3__16vectorIiNS_9allocatorIiEEE21_ConstructTransactionD1Ev ## -- Begin function _ZNSt3__16vectorIiNS_9allocatorIiEEE21_ConstructTransactionD1Ev
	.weak_def_can_be_hidden	__ZNSt3__16vectorIiNS_9allocatorIiEEE21_ConstructTransactionD1Ev
	.p2align	4, 0x90
__ZNSt3__16vectorIiNS_9allocatorIiEEE21_ConstructTransactionD1Ev: ## @_ZNSt3__16vectorIiNS_9allocatorIiEEE21_ConstructTransactionD1Ev
	.cfi_startproc
## %bb.0:
	pushq	%rbp
	.cfi_def_cfa_offset 16
	.cfi_offset %rbp, -16
	movq	%rsp, %rbp
	.cfi_def_cfa_register %rbp
	callq	__ZNSt3__16vectorIiNS_9allocatorIiEEE21_ConstructTransactionD2Ev
	popq	%rbp
	retq
	.cfi_endproc
                                        ## -- End function
	.globl	__ZNSt3__16vectorIiNS_9allocatorIiEEE21_ConstructTransactionC2ERS3_m ## -- Begin function _ZNSt3__16vectorIiNS_9allocatorIiEEE21_ConstructTransactionC2ERS3_m
	.weak_def_can_be_hidden	__ZNSt3__16vectorIiNS_9allocatorIiEEE21_ConstructTransactionC2ERS3_m
	.p2align	4, 0x90
__ZNSt3__16vectorIiNS_9allocatorIiEEE21_ConstructTransactionC2ERS3_m: ## @_ZNSt3__16vectorIiNS_9allocatorIiEEE21_ConstructTransactionC2ERS3_m
	.cfi_startproc
## %bb.0:
	pushq	%rbp
	.cfi_def_cfa_offset 16
	.cfi_offset %rbp, -16
	movq	%rsp, %rbp
	.cfi_def_cfa_register %rbp
	movq	%rsi, (%rdi)
	movq	8(%rsi), %rax
	movq	%rax, 8(%rdi)
	shlq	$2, %rdx
	addq	8(%rsi), %rdx
	movq	%rdx, 16(%rdi)
	popq	%rbp
	retq
	.cfi_endproc
                                        ## -- End function
	.p2align	4, 0x90                         ## -- Begin function _ZNSt3__117__compressed_pairIPiNS_9allocatorIiEEE6secondEv
__ZNSt3__117__compressed_pairIPiNS_9allocatorIiEEE6secondEv: ## @_ZNSt3__117__compressed_pairIPiNS_9allocatorIiEEE6secondEv
	.cfi_startproc
## %bb.0:
	pushq	%rbp
	.cfi_def_cfa_offset 16
	.cfi_offset %rbp, -16
	movq	%rsp, %rbp
	.cfi_def_cfa_register %rbp
	callq	__ZNSt3__122__compressed_pair_elemINS_9allocatorIiEELi1ELb1EE5__getEv
	popq	%rbp
	retq
	.cfi_endproc
                                        ## -- End function
	.p2align	4, 0x90                         ## -- Begin function _ZNSt3__122__compressed_pair_elemINS_9allocatorIiEELi1ELb1EE5__getEv
__ZNSt3__122__compressed_pair_elemINS_9allocatorIiEELi1ELb1EE5__getEv: ## @_ZNSt3__122__compressed_pair_elemINS_9allocatorIiEELi1ELb1EE5__getEv
	.cfi_startproc
## %bb.0:
	pushq	%rbp
	.cfi_def_cfa_offset 16
	.cfi_offset %rbp, -16
	movq	%rsp, %rbp
	.cfi_def_cfa_register %rbp
	movq	%rdi, %rax
	popq	%rbp
	retq
	.cfi_endproc
                                        ## -- End function
	.globl	__ZNSt3__16vectorIiNS_9allocatorIiEEE21_ConstructTransactionD2Ev ## -- Begin function _ZNSt3__16vectorIiNS_9allocatorIiEEE21_ConstructTransactionD2Ev
	.weak_def_can_be_hidden	__ZNSt3__16vectorIiNS_9allocatorIiEEE21_ConstructTransactionD2Ev
	.p2align	4, 0x90
__ZNSt3__16vectorIiNS_9allocatorIiEEE21_ConstructTransactionD2Ev: ## @_ZNSt3__16vectorIiNS_9allocatorIiEEE21_ConstructTransactionD2Ev
	.cfi_startproc
## %bb.0:
	pushq	%rbp
	.cfi_def_cfa_offset 16
	.cfi_offset %rbp, -16
	movq	%rsp, %rbp
	.cfi_def_cfa_register %rbp
	movq	(%rdi), %rax
	movq	8(%rdi), %rcx
	movq	%rcx, 8(%rax)
	popq	%rbp
	retq
	.cfi_endproc
                                        ## -- End function
	.p2align	4, 0x90                         ## -- Begin function _ZNSt3__113__vector_baseIiNS_9allocatorIiEEE17__destruct_at_endEPi
__ZNSt3__113__vector_baseIiNS_9allocatorIiEEE17__destruct_at_endEPi: ## @_ZNSt3__113__vector_baseIiNS_9allocatorIiEEE17__destruct_at_endEPi
	.cfi_startproc
## %bb.0:
	pushq	%rbp
	.cfi_def_cfa_offset 16
	.cfi_offset %rbp, -16
	movq	%rsp, %rbp
	.cfi_def_cfa_register %rbp
	movq	%rsi, 8(%rdi)
	popq	%rbp
	retq
	.cfi_endproc
                                        ## -- End function
	.p2align	4, 0x90                         ## -- Begin function _ZNSt3__16vectorIiNS_9allocatorIiEEE5clearEv
__ZNSt3__16vectorIiNS_9allocatorIiEEE5clearEv: ## @_ZNSt3__16vectorIiNS_9allocatorIiEEE5clearEv
	.cfi_startproc
## %bb.0:
	pushq	%rbp
	.cfi_def_cfa_offset 16
	.cfi_offset %rbp, -16
	movq	%rsp, %rbp
	.cfi_def_cfa_register %rbp
	callq	__ZNSt3__113__vector_baseIiNS_9allocatorIiEEE5clearEv
	popq	%rbp
	retq
	.cfi_endproc
                                        ## -- End function
	.p2align	4, 0x90                         ## -- Begin function _ZNSt3__116allocator_traitsINS_9allocatorIiEEE10deallocateERS2_Pim
__ZNSt3__116allocator_traitsINS_9allocatorIiEEE10deallocateERS2_Pim: ## @_ZNSt3__116allocator_traitsINS_9allocatorIiEEE10deallocateERS2_Pim
	.cfi_startproc
## %bb.0:
	pushq	%rbp
	.cfi_def_cfa_offset 16
	.cfi_offset %rbp, -16
	movq	%rsp, %rbp
	.cfi_def_cfa_register %rbp
	callq	__ZNSt3__19allocatorIiE10deallocateEPim
	popq	%rbp
	retq
	.cfi_endproc
                                        ## -- End function
	.p2align	4, 0x90                         ## -- Begin function _ZNSt3__113__vector_baseIiNS_9allocatorIiEEE9__end_capEv
__ZNSt3__113__vector_baseIiNS_9allocatorIiEEE9__end_capEv: ## @_ZNSt3__113__vector_baseIiNS_9allocatorIiEEE9__end_capEv
	.cfi_startproc
## %bb.0:
	pushq	%rbp
	.cfi_def_cfa_offset 16
	.cfi_offset %rbp, -16
	movq	%rsp, %rbp
	.cfi_def_cfa_register %rbp
	addq	$16, %rdi
	callq	__ZNSt3__117__compressed_pairIPiNS_9allocatorIiEEE5firstEv
	popq	%rbp
	retq
	.cfi_endproc
                                        ## -- End function
	.p2align	4, 0x90                         ## -- Begin function _ZNSt3__113__vector_baseIiNS_9allocatorIiEEE5clearEv
__ZNSt3__113__vector_baseIiNS_9allocatorIiEEE5clearEv: ## @_ZNSt3__113__vector_baseIiNS_9allocatorIiEEE5clearEv
	.cfi_startproc
## %bb.0:
	pushq	%rbp
	.cfi_def_cfa_offset 16
	.cfi_offset %rbp, -16
	movq	%rsp, %rbp
	.cfi_def_cfa_register %rbp
	movq	(%rdi), %rsi
	callq	__ZNSt3__113__vector_baseIiNS_9allocatorIiEEE17__destruct_at_endEPi
	popq	%rbp
	retq
	.cfi_endproc
                                        ## -- End function
	.p2align	4, 0x90                         ## -- Begin function _ZNSt3__19allocatorIiE10deallocateEPim
__ZNSt3__19allocatorIiE10deallocateEPim: ## @_ZNSt3__19allocatorIiE10deallocateEPim
	.cfi_startproc
## %bb.0:
	pushq	%rbp
	.cfi_def_cfa_offset 16
	.cfi_offset %rbp, -16
	movq	%rsp, %rbp
	.cfi_def_cfa_register %rbp
	callq	__ZNSt3__1L19__libcpp_deallocateEPvmm
	popq	%rbp
	retq
	.cfi_endproc
                                        ## -- End function
	.p2align	4, 0x90                         ## -- Begin function _ZNSt3__1L19__libcpp_deallocateEPvmm
__ZNSt3__1L19__libcpp_deallocateEPvmm:  ## @_ZNSt3__1L19__libcpp_deallocateEPvmm
	.cfi_startproc
## %bb.0:
	pushq	%rbp
	.cfi_def_cfa_offset 16
	.cfi_offset %rbp, -16
	movq	%rsp, %rbp
	.cfi_def_cfa_register %rbp
	callq	__ZNSt3__1L27__do_deallocate_handle_sizeIJEEEvPvmDpT_
	popq	%rbp
	retq
	.cfi_endproc
                                        ## -- End function
	.p2align	4, 0x90                         ## -- Begin function _ZNSt3__1L27__do_deallocate_handle_sizeIJEEEvPvmDpT_
__ZNSt3__1L27__do_deallocate_handle_sizeIJEEEvPvmDpT_: ## @_ZNSt3__1L27__do_deallocate_handle_sizeIJEEEvPvmDpT_
	.cfi_startproc
## %bb.0:
	pushq	%rbp
	.cfi_def_cfa_offset 16
	.cfi_offset %rbp, -16
	movq	%rsp, %rbp
	.cfi_def_cfa_register %rbp
	callq	__ZNSt3__1L24__libcpp_operator_deleteIJPvEEEvDpT_
	popq	%rbp
	retq
	.cfi_endproc
                                        ## -- End function
	.p2align	4, 0x90                         ## -- Begin function _ZNSt3__1L24__libcpp_operator_deleteIJPvEEEvDpT_
__ZNSt3__1L24__libcpp_operator_deleteIJPvEEEvDpT_: ## @_ZNSt3__1L24__libcpp_operator_deleteIJPvEEEvDpT_
	.cfi_startproc
## %bb.0:
	pushq	%rbp
	.cfi_def_cfa_offset 16
	.cfi_offset %rbp, -16
	movq	%rsp, %rbp
	.cfi_def_cfa_register %rbp
	callq	__ZdlPv
	popq	%rbp
	retq
	.cfi_endproc
                                        ## -- End function
	.p2align	4, 0x90                         ## -- Begin function _ZNSt3__117__compressed_pairIPiNS_9allocatorIiEEE5firstEv
__ZNSt3__117__compressed_pairIPiNS_9allocatorIiEEE5firstEv: ## @_ZNSt3__117__compressed_pairIPiNS_9allocatorIiEEE5firstEv
	.cfi_startproc
## %bb.0:
	pushq	%rbp
	.cfi_def_cfa_offset 16
	.cfi_offset %rbp, -16
	movq	%rsp, %rbp
	.cfi_def_cfa_register %rbp
	callq	__ZNSt3__122__compressed_pair_elemIPiLi0ELb0EE5__getEv
	popq	%rbp
	retq
	.cfi_endproc
                                        ## -- End function
	.p2align	4, 0x90                         ## -- Begin function _ZNSt3__122__compressed_pair_elemIPiLi0ELb0EE5__getEv
__ZNSt3__122__compressed_pair_elemIPiLi0ELb0EE5__getEv: ## @_ZNSt3__122__compressed_pair_elemIPiLi0ELb0EE5__getEv
	.cfi_startproc
## %bb.0:
	pushq	%rbp
	.cfi_def_cfa_offset 16
	.cfi_offset %rbp, -16
	movq	%rsp, %rbp
	.cfi_def_cfa_register %rbp
	movq	%rdi, %rax
	popq	%rbp
	retq
	.cfi_endproc
                                        ## -- End function
	.globl	__ZNKSt3__16vectorIiNS_9allocatorIiEEE8max_sizeEv ## -- Begin function _ZNKSt3__16vectorIiNS_9allocatorIiEEE8max_sizeEv
	.weak_def_can_be_hidden	__ZNKSt3__16vectorIiNS_9allocatorIiEEE8max_sizeEv
	.p2align	4, 0x90
__ZNKSt3__16vectorIiNS_9allocatorIiEEE8max_sizeEv: ## @_ZNKSt3__16vectorIiNS_9allocatorIiEEE8max_sizeEv
	.cfi_startproc
## %bb.0:
	pushq	%rbp
	.cfi_def_cfa_offset 16
	.cfi_offset %rbp, -16
	movq	%rsp, %rbp
	.cfi_def_cfa_register %rbp
	subq	$16, %rsp
	movabsq	$4611686018427387903, %rax      ## imm = 0x3FFFFFFFFFFFFFFF
	movq	%rax, -16(%rbp)
	movabsq	$9223372036854775807, %rax      ## imm = 0x7FFFFFFFFFFFFFFF
	movq	%rax, -8(%rbp)
	leaq	-16(%rbp), %rdi
	leaq	-8(%rbp), %rsi
	callq	__ZNSt3__1L3minImEERKT_S3_S3_
	movq	(%rax), %rax
	addq	$16, %rsp
	popq	%rbp
	retq
	.cfi_endproc
                                        ## -- End function
	.p2align	4, 0x90                         ## -- Begin function _ZNSt3__116allocator_traitsINS_9allocatorIiEEE8allocateERS2_m
__ZNSt3__116allocator_traitsINS_9allocatorIiEEE8allocateERS2_m: ## @_ZNSt3__116allocator_traitsINS_9allocatorIiEEE8allocateERS2_m
	.cfi_startproc
## %bb.0:
	pushq	%rbp
	.cfi_def_cfa_offset 16
	.cfi_offset %rbp, -16
	movq	%rsp, %rbp
	.cfi_def_cfa_register %rbp
	callq	__ZNSt3__19allocatorIiE8allocateEm
	popq	%rbp
	retq
	.cfi_endproc
                                        ## -- End function
	.p2align	4, 0x90                         ## -- Begin function _ZNSt3__1L3minImEERKT_S3_S3_
__ZNSt3__1L3minImEERKT_S3_S3_:          ## @_ZNSt3__1L3minImEERKT_S3_S3_
	.cfi_startproc
## %bb.0:
	pushq	%rbp
	.cfi_def_cfa_offset 16
	.cfi_offset %rbp, -16
	movq	%rsp, %rbp
	.cfi_def_cfa_register %rbp
	callq	__ZNSt3__1L3minImNS_6__lessImmEEEERKT_S5_S5_T0_
	popq	%rbp
	retq
	.cfi_endproc
                                        ## -- End function
	.p2align	4, 0x90                         ## -- Begin function _ZNSt3__1L3minImNS_6__lessImmEEEERKT_S5_S5_T0_
__ZNSt3__1L3minImNS_6__lessImmEEEERKT_S5_S5_T0_: ## @_ZNSt3__1L3minImNS_6__lessImmEEEERKT_S5_S5_T0_
	.cfi_startproc
## %bb.0:
	pushq	%rbp
	.cfi_def_cfa_offset 16
	.cfi_offset %rbp, -16
	movq	%rsp, %rbp
	.cfi_def_cfa_register %rbp
	pushq	%r14
	pushq	%rbx
	.cfi_offset %rbx, -32
	.cfi_offset %r14, -24
	movq	%rsi, %r14
	movq	%rdi, %rbx
	movq	%rsi, %rdi
	movq	%rbx, %rsi
	callq	__ZNKSt3__16__lessImmEclERKmS3_
	testb	%al, %al
	cmovneq	%r14, %rbx
	movq	%rbx, %rax
	popq	%rbx
	popq	%r14
	popq	%rbp
	retq
	.cfi_endproc
                                        ## -- End function
	.p2align	4, 0x90                         ## -- Begin function _ZNKSt3__16__lessImmEclERKmS3_
__ZNKSt3__16__lessImmEclERKmS3_:        ## @_ZNKSt3__16__lessImmEclERKmS3_
	.cfi_startproc
## %bb.0:
	pushq	%rbp
	.cfi_def_cfa_offset 16
	.cfi_offset %rbp, -16
	movq	%rsp, %rbp
	.cfi_def_cfa_register %rbp
	movq	(%rdi), %rax
	cmpq	(%rsi), %rax
	setb	%al
	popq	%rbp
	retq
	.cfi_endproc
                                        ## -- End function
	.p2align	4, 0x90                         ## -- Begin function _ZNSt3__19allocatorIiE8allocateEm
__ZNSt3__19allocatorIiE8allocateEm:     ## @_ZNSt3__19allocatorIiE8allocateEm
	.cfi_startproc
## %bb.0:
	pushq	%rbp
	.cfi_def_cfa_offset 16
	.cfi_offset %rbp, -16
	movq	%rsp, %rbp
	.cfi_def_cfa_register %rbp
	movq	%rdi, %rax
	shrq	$62, %rax
	jne	LBB125_2
## %bb.1:
	shlq	$2, %rdi
	callq	__ZNSt3__1L17__libcpp_allocateEmm
	popq	%rbp
	retq
LBB125_2:
	callq	__ZNSt3__1L20__throw_length_errorEPKc
	.cfi_endproc
                                        ## -- End function
	.p2align	4, 0x90                         ## -- Begin function _ZNSt3__1L20__throw_length_errorEPKc
__ZNSt3__1L20__throw_length_errorEPKc:  ## @_ZNSt3__1L20__throw_length_errorEPKc
Lfunc_begin9:
	.cfi_startproc
	.cfi_personality 155, ___gxx_personality_v0
	.cfi_lsda 16, Lexception9
## %bb.0:
	pushq	%rbp
	.cfi_def_cfa_offset 16
	.cfi_offset %rbp, -16
	movq	%rsp, %rbp
	.cfi_def_cfa_register %rbp
	pushq	%r14
	pushq	%rbx
	.cfi_offset %rbx, -32
	.cfi_offset %r14, -24
	movl	$16, %edi
	callq	___cxa_allocate_exception
	movq	%rax, %rbx
Ltmp154:
	movq	%rax, %rdi
	callq	__ZNSt12length_errorC1EPKc
Ltmp155:
## %bb.1:
	movq	__ZTISt12length_error@GOTPCREL(%rip), %rsi
	movq	__ZNSt12length_errorD1Ev@GOTPCREL(%rip), %rdx
	movq	%rbx, %rdi
	callq	___cxa_throw
LBB126_2:
Ltmp156:
	movq	%rax, %r14
	movq	%rbx, %rdi
	callq	___cxa_free_exception
	movq	%r14, %rdi
	callq	__Unwind_Resume
	ud2
Lfunc_end9:
	.cfi_endproc
	.section	__TEXT,__gcc_except_tab
	.p2align	2
GCC_except_table126:
Lexception9:
	.byte	255                             ## @LPStart Encoding = omit
	.byte	255                             ## @TType Encoding = omit
	.byte	1                               ## Call site Encoding = uleb128
	.uleb128 Lcst_end9-Lcst_begin9
Lcst_begin9:
	.uleb128 Lfunc_begin9-Lfunc_begin9      ## >> Call Site 1 <<
	.uleb128 Ltmp154-Lfunc_begin9           ##   Call between Lfunc_begin9 and Ltmp154
	.byte	0                               ##     has no landing pad
	.byte	0                               ##   On action: cleanup
	.uleb128 Ltmp154-Lfunc_begin9           ## >> Call Site 2 <<
	.uleb128 Ltmp155-Ltmp154                ##   Call between Ltmp154 and Ltmp155
	.uleb128 Ltmp156-Lfunc_begin9           ##     jumps to Ltmp156
	.byte	0                               ##   On action: cleanup
	.uleb128 Ltmp155-Lfunc_begin9           ## >> Call Site 3 <<
	.uleb128 Lfunc_end9-Ltmp155             ##   Call between Ltmp155 and Lfunc_end9
	.byte	0                               ##     has no landing pad
	.byte	0                               ##   On action: cleanup
Lcst_end9:
	.p2align	2
                                        ## -- End function
	.section	__TEXT,__text,regular,pure_instructions
	.p2align	4, 0x90                         ## -- Begin function _ZNSt3__1L17__libcpp_allocateEmm
__ZNSt3__1L17__libcpp_allocateEmm:      ## @_ZNSt3__1L17__libcpp_allocateEmm
	.cfi_startproc
## %bb.0:
	pushq	%rbp
	.cfi_def_cfa_offset 16
	.cfi_offset %rbp, -16
	movq	%rsp, %rbp
	.cfi_def_cfa_register %rbp
	callq	__ZNSt3__1L21__libcpp_operator_newIJmEEEPvDpT_
	popq	%rbp
	retq
	.cfi_endproc
                                        ## -- End function
	.p2align	4, 0x90                         ## -- Begin function _ZNSt12length_errorC1EPKc
__ZNSt12length_errorC1EPKc:             ## @_ZNSt12length_errorC1EPKc
	.cfi_startproc
## %bb.0:
	pushq	%rbp
	.cfi_def_cfa_offset 16
	.cfi_offset %rbp, -16
	movq	%rsp, %rbp
	.cfi_def_cfa_register %rbp
	callq	__ZNSt12length_errorC2EPKc
	popq	%rbp
	retq
	.cfi_endproc
                                        ## -- End function
	.p2align	4, 0x90                         ## -- Begin function _ZNSt12length_errorC2EPKc
__ZNSt12length_errorC2EPKc:             ## @_ZNSt12length_errorC2EPKc
	.cfi_startproc
## %bb.0:
	pushq	%rbp
	.cfi_def_cfa_offset 16
	.cfi_offset %rbp, -16
	movq	%rsp, %rbp
	.cfi_def_cfa_register %rbp
	pushq	%rbx
	pushq	%rax
	.cfi_offset %rbx, -24
	movq	%rdi, %rbx
	leaq	L_.str.13(%rip), %rsi
	callq	__ZNSt11logic_errorC2EPKc
	movq	__ZTVSt12length_error@GOTPCREL(%rip), %rax
	addq	$16, %rax
	movq	%rax, (%rbx)
	addq	$8, %rsp
	popq	%rbx
	popq	%rbp
	retq
	.cfi_endproc
                                        ## -- End function
	.p2align	4, 0x90                         ## -- Begin function _ZNSt3__1L21__libcpp_operator_newIJmEEEPvDpT_
__ZNSt3__1L21__libcpp_operator_newIJmEEEPvDpT_: ## @_ZNSt3__1L21__libcpp_operator_newIJmEEEPvDpT_
	.cfi_startproc
## %bb.0:
	pushq	%rbp
	.cfi_def_cfa_offset 16
	.cfi_offset %rbp, -16
	movq	%rsp, %rbp
	.cfi_def_cfa_register %rbp
	callq	__Znwm
	popq	%rbp
	retq
	.cfi_endproc
                                        ## -- End function
	.p2align	4, 0x90                         ## -- Begin function _ZNSt3__1L3maxImEERKT_S3_S3_
__ZNSt3__1L3maxImEERKT_S3_S3_:          ## @_ZNSt3__1L3maxImEERKT_S3_S3_
	.cfi_startproc
## %bb.0:
	pushq	%rbp
	.cfi_def_cfa_offset 16
	.cfi_offset %rbp, -16
	movq	%rsp, %rbp
	.cfi_def_cfa_register %rbp
	callq	__ZNSt3__1L3maxImNS_6__lessImmEEEERKT_S5_S5_T0_
	popq	%rbp
	retq
	.cfi_endproc
                                        ## -- End function
	.p2align	4, 0x90                         ## -- Begin function _ZNSt3__1L3maxImNS_6__lessImmEEEERKT_S5_S5_T0_
__ZNSt3__1L3maxImNS_6__lessImmEEEERKT_S5_S5_T0_: ## @_ZNSt3__1L3maxImNS_6__lessImmEEEERKT_S5_S5_T0_
	.cfi_startproc
## %bb.0:
	pushq	%rbp
	.cfi_def_cfa_offset 16
	.cfi_offset %rbp, -16
	movq	%rsp, %rbp
	.cfi_def_cfa_register %rbp
	pushq	%r14
	pushq	%rbx
	.cfi_offset %rbx, -32
	.cfi_offset %r14, -24
	movq	%rsi, %r14
	movq	%rdi, %rbx
	callq	__ZNKSt3__16__lessImmEclERKmS3_
	testb	%al, %al
	cmovneq	%r14, %rbx
	movq	%rbx, %rax
	popq	%rbx
	popq	%r14
	popq	%rbp
	retq
	.cfi_endproc
                                        ## -- End function
	.p2align	4, 0x90                         ## -- Begin function _ZNSt16invalid_argumentC2EPKc
__ZNSt16invalid_argumentC2EPKc:         ## @_ZNSt16invalid_argumentC2EPKc
	.cfi_startproc
## %bb.0:
	pushq	%rbp
	.cfi_def_cfa_offset 16
	.cfi_offset %rbp, -16
	movq	%rsp, %rbp
	.cfi_def_cfa_register %rbp
	pushq	%rbx
	pushq	%rax
	.cfi_offset %rbx, -24
	movq	%rdi, %rbx
	callq	__ZNSt11logic_errorC2EPKc
	movq	__ZTVSt16invalid_argument@GOTPCREL(%rip), %rax
	addq	$16, %rax
	movq	%rax, (%rbx)
	addq	$8, %rsp
	popq	%rbx
	popq	%rbp
	retq
	.cfi_endproc
                                        ## -- End function
	.globl	__ZNSt3__16vectorIdNS_9allocatorIdEEEC1EmRKd ## -- Begin function _ZNSt3__16vectorIdNS_9allocatorIdEEEC1EmRKd
	.weak_def_can_be_hidden	__ZNSt3__16vectorIdNS_9allocatorIdEEEC1EmRKd
	.p2align	4, 0x90
__ZNSt3__16vectorIdNS_9allocatorIdEEEC1EmRKd: ## @_ZNSt3__16vectorIdNS_9allocatorIdEEEC1EmRKd
	.cfi_startproc
## %bb.0:
	pushq	%rbp
	.cfi_def_cfa_offset 16
	.cfi_offset %rbp, -16
	movq	%rsp, %rbp
	.cfi_def_cfa_register %rbp
	callq	__ZNSt3__16vectorIdNS_9allocatorIdEEEC2EmRKd
	popq	%rbp
	retq
	.cfi_endproc
                                        ## -- End function
	.globl	__ZNSt3__16vectorINS0_IdNS_9allocatorIdEEEENS1_IS3_EEEC1EmRKS3_ ## -- Begin function _ZNSt3__16vectorINS0_IdNS_9allocatorIdEEEENS1_IS3_EEEC1EmRKS3_
	.weak_def_can_be_hidden	__ZNSt3__16vectorINS0_IdNS_9allocatorIdEEEENS1_IS3_EEEC1EmRKS3_
	.p2align	4, 0x90
__ZNSt3__16vectorINS0_IdNS_9allocatorIdEEEENS1_IS3_EEEC1EmRKS3_: ## @_ZNSt3__16vectorINS0_IdNS_9allocatorIdEEEENS1_IS3_EEEC1EmRKS3_
	.cfi_startproc
## %bb.0:
	pushq	%rbp
	.cfi_def_cfa_offset 16
	.cfi_offset %rbp, -16
	movq	%rsp, %rbp
	.cfi_def_cfa_register %rbp
	callq	__ZNSt3__16vectorINS0_IdNS_9allocatorIdEEEENS1_IS3_EEEC2EmRKS3_
	popq	%rbp
	retq
	.cfi_endproc
                                        ## -- End function
	.p2align	4, 0x90                         ## -- Begin function _ZNSt3__16vectorINS0_IdNS_9allocatorIdEEEENS1_IS3_EEEixEm
__ZNSt3__16vectorINS0_IdNS_9allocatorIdEEEENS1_IS3_EEEixEm: ## @_ZNSt3__16vectorINS0_IdNS_9allocatorIdEEEENS1_IS3_EEEixEm
	.cfi_startproc
## %bb.0:
	pushq	%rbp
	.cfi_def_cfa_offset 16
	.cfi_offset %rbp, -16
	movq	%rsp, %rbp
	.cfi_def_cfa_register %rbp
	leaq	(%rsi,%rsi,2), %rax
	shlq	$3, %rax
	addq	(%rdi), %rax
	popq	%rbp
	retq
	.cfi_endproc
                                        ## -- End function
	.section	__TEXT,__literal16,16byte_literals
	.p2align	4                               ## -- Begin function _ZL3absd
LCPI137_0:
	.quad	0x7fffffffffffffff              ## double NaN
	.quad	0x7fffffffffffffff              ## double NaN
	.section	__TEXT,__text,regular,pure_instructions
	.p2align	4, 0x90
__ZL3absd:                              ## @_ZL3absd
	.cfi_startproc
## %bb.0:
	pushq	%rbp
	.cfi_def_cfa_offset 16
	.cfi_offset %rbp, -16
	movq	%rsp, %rbp
	.cfi_def_cfa_register %rbp
	andps	LCPI137_0(%rip), %xmm0
	popq	%rbp
	retq
	.cfi_endproc
                                        ## -- End function
	.p2align	4, 0x90                         ## -- Begin function _ZNSt3__16vectorINS0_IdNS_9allocatorIdEEEENS1_IS3_EEED1Ev
__ZNSt3__16vectorINS0_IdNS_9allocatorIdEEEENS1_IS3_EEED1Ev: ## @_ZNSt3__16vectorINS0_IdNS_9allocatorIdEEEENS1_IS3_EEED1Ev
	.cfi_startproc
## %bb.0:
	pushq	%rbp
	.cfi_def_cfa_offset 16
	.cfi_offset %rbp, -16
	movq	%rsp, %rbp
	.cfi_def_cfa_register %rbp
	callq	__ZNSt3__16vectorINS0_IdNS_9allocatorIdEEEENS1_IS3_EEED2Ev
	popq	%rbp
	retq
	.cfi_endproc
                                        ## -- End function
	.globl	__ZNSt3__16vectorIdNS_9allocatorIdEEEC2EmRKd ## -- Begin function _ZNSt3__16vectorIdNS_9allocatorIdEEEC2EmRKd
	.weak_def_can_be_hidden	__ZNSt3__16vectorIdNS_9allocatorIdEEEC2EmRKd
	.p2align	4, 0x90
__ZNSt3__16vectorIdNS_9allocatorIdEEEC2EmRKd: ## @_ZNSt3__16vectorIdNS_9allocatorIdEEEC2EmRKd
Lfunc_begin10:
	.cfi_startproc
	.cfi_personality 155, ___gxx_personality_v0
	.cfi_lsda 16, Lexception10
## %bb.0:
	pushq	%rbp
	.cfi_def_cfa_offset 16
	.cfi_offset %rbp, -16
	movq	%rsp, %rbp
	.cfi_def_cfa_register %rbp
	pushq	%r15
	pushq	%r14
	pushq	%rbx
	pushq	%rax
	.cfi_offset %rbx, -40
	.cfi_offset %r14, -32
	.cfi_offset %r15, -24
	movq	%rdx, %r14
	movq	%rsi, %rbx
	movq	%rdi, %r15
	callq	__ZNSt3__113__vector_baseIdNS_9allocatorIdEEEC2Ev
	testq	%rbx, %rbx
	je	LBB139_3
## %bb.1:
Ltmp157:
	movq	%r15, %rdi
	movq	%rbx, %rsi
	callq	__ZNSt3__16vectorIdNS_9allocatorIdEEE11__vallocateEm
Ltmp158:
## %bb.2:
Ltmp159:
	movq	%r15, %rdi
	movq	%rbx, %rsi
	movq	%r14, %rdx
	callq	__ZNSt3__16vectorIdNS_9allocatorIdEEE18__construct_at_endEmRKd
Ltmp160:
LBB139_3:
	addq	$8, %rsp
	popq	%rbx
	popq	%r14
	popq	%r15
	popq	%rbp
	retq
LBB139_4:
Ltmp161:
	movq	%rax, %rbx
	movq	%r15, %rdi
	callq	__ZNSt3__113__vector_baseIdNS_9allocatorIdEEED2Ev
	movq	%rbx, %rdi
	callq	__Unwind_Resume
	ud2
Lfunc_end10:
	.cfi_endproc
	.section	__TEXT,__gcc_except_tab
	.p2align	2
GCC_except_table139:
Lexception10:
	.byte	255                             ## @LPStart Encoding = omit
	.byte	255                             ## @TType Encoding = omit
	.byte	1                               ## Call site Encoding = uleb128
	.uleb128 Lcst_end10-Lcst_begin10
Lcst_begin10:
	.uleb128 Ltmp157-Lfunc_begin10          ## >> Call Site 1 <<
	.uleb128 Ltmp160-Ltmp157                ##   Call between Ltmp157 and Ltmp160
	.uleb128 Ltmp161-Lfunc_begin10          ##     jumps to Ltmp161
	.byte	0                               ##   On action: cleanup
	.uleb128 Ltmp160-Lfunc_begin10          ## >> Call Site 2 <<
	.uleb128 Lfunc_end10-Ltmp160            ##   Call between Ltmp160 and Lfunc_end10
	.byte	0                               ##     has no landing pad
	.byte	0                               ##   On action: cleanup
Lcst_end10:
	.p2align	2
                                        ## -- End function
	.section	__TEXT,__text,regular,pure_instructions
	.p2align	4, 0x90                         ## -- Begin function _ZNSt3__113__vector_baseIdNS_9allocatorIdEEEC2Ev
__ZNSt3__113__vector_baseIdNS_9allocatorIdEEEC2Ev: ## @_ZNSt3__113__vector_baseIdNS_9allocatorIdEEEC2Ev
	.cfi_startproc
## %bb.0:
	pushq	%rbp
	.cfi_def_cfa_offset 16
	.cfi_offset %rbp, -16
	movq	%rsp, %rbp
	.cfi_def_cfa_register %rbp
	leaq	16(%rdi), %rax
	movq	$0, 8(%rdi)
	movq	$0, (%rdi)
	movq	%rax, %rdi
	callq	__ZNSt3__117__compressed_pairIPdNS_9allocatorIdEEEC1IDnNS_18__default_init_tagEEEOT_OT0_
	popq	%rbp
	retq
	.cfi_endproc
                                        ## -- End function
	.globl	__ZNSt3__16vectorIdNS_9allocatorIdEEE11__vallocateEm ## -- Begin function _ZNSt3__16vectorIdNS_9allocatorIdEEE11__vallocateEm
	.weak_def_can_be_hidden	__ZNSt3__16vectorIdNS_9allocatorIdEEE11__vallocateEm
	.p2align	4, 0x90
__ZNSt3__16vectorIdNS_9allocatorIdEEE11__vallocateEm: ## @_ZNSt3__16vectorIdNS_9allocatorIdEEE11__vallocateEm
	.cfi_startproc
## %bb.0:
	pushq	%rbp
	.cfi_def_cfa_offset 16
	.cfi_offset %rbp, -16
	movq	%rsp, %rbp
	.cfi_def_cfa_register %rbp
	pushq	%r14
	pushq	%rbx
	.cfi_offset %rbx, -32
	.cfi_offset %r14, -24
	movq	%rsi, %r14
	movq	%rdi, %rbx
	callq	__ZNKSt3__16vectorIdNS_9allocatorIdEEE8max_sizeEv
	cmpq	%r14, %rax
	jb	LBB141_2
## %bb.1:
	movq	%r14, %rdi
	callq	__ZNSt3__116allocator_traitsINS_9allocatorIdEEE8allocateERS2_m
	movq	%rax, 8(%rbx)
	movq	%rax, (%rbx)
	leaq	(%rax,%r14,8), %r14
	movq	%rbx, %rdi
	callq	__ZNSt3__113__vector_baseIdNS_9allocatorIdEEE9__end_capEv
	movq	%r14, (%rax)
	popq	%rbx
	popq	%r14
	popq	%rbp
	retq
LBB141_2:
	movq	%rbx, %rdi
	callq	__ZNKSt3__120__vector_base_commonILb1EE20__throw_length_errorEv
	.cfi_endproc
                                        ## -- End function
	.p2align	4, 0x90                         ## -- Begin function _ZNSt3__16vectorIdNS_9allocatorIdEEE18__construct_at_endEmRKd
__ZNSt3__16vectorIdNS_9allocatorIdEEE18__construct_at_endEmRKd: ## @_ZNSt3__16vectorIdNS_9allocatorIdEEE18__construct_at_endEmRKd
	.cfi_startproc
## %bb.0:
	pushq	%rbp
	.cfi_def_cfa_offset 16
	.cfi_offset %rbp, -16
	movq	%rsp, %rbp
	.cfi_def_cfa_register %rbp
	pushq	%r15
	pushq	%r14
	pushq	%rbx
	subq	$24, %rsp
	.cfi_offset %rbx, -40
	.cfi_offset %r14, -32
	.cfi_offset %r15, -24
	movq	%rdx, %r14
	movq	%rsi, %rdx
	movq	%rdi, %rsi
	leaq	-48(%rbp), %rdi
	callq	__ZNSt3__16vectorIdNS_9allocatorIdEEE21_ConstructTransactionC1ERS3_m
	movq	-40(%rbp), %rbx
	movq	-32(%rbp), %r15
	cmpq	%r15, %rbx
	je	LBB142_2
	.p2align	4, 0x90
LBB142_1:                               ## =>This Inner Loop Header: Depth=1
	movq	%rbx, %rdi
	movq	%r14, %rsi
	callq	__ZNSt3__116allocator_traitsINS_9allocatorIdEEE9constructIdJRKdEvEEvRS2_PT_DpOT0_
	addq	$8, %rbx
	movq	%rbx, -40(%rbp)
	cmpq	%rbx, %r15
	jne	LBB142_1
LBB142_2:
	leaq	-48(%rbp), %rdi
	callq	__ZNSt3__16vectorIdNS_9allocatorIdEEE21_ConstructTransactionD1Ev
	addq	$24, %rsp
	popq	%rbx
	popq	%r14
	popq	%r15
	popq	%rbp
	retq
	.cfi_endproc
                                        ## -- End function
	.globl	__ZNSt3__113__vector_baseIdNS_9allocatorIdEEED2Ev ## -- Begin function _ZNSt3__113__vector_baseIdNS_9allocatorIdEEED2Ev
	.weak_def_can_be_hidden	__ZNSt3__113__vector_baseIdNS_9allocatorIdEEED2Ev
	.p2align	4, 0x90
__ZNSt3__113__vector_baseIdNS_9allocatorIdEEED2Ev: ## @_ZNSt3__113__vector_baseIdNS_9allocatorIdEEED2Ev
	.cfi_startproc
## %bb.0:
	pushq	%rbp
	.cfi_def_cfa_offset 16
	.cfi_offset %rbp, -16
	movq	%rsp, %rbp
	.cfi_def_cfa_register %rbp
	pushq	%r14
	pushq	%rbx
	.cfi_offset %rbx, -32
	.cfi_offset %r14, -24
	cmpq	$0, (%rdi)
	je	LBB143_2
## %bb.1:
	movq	%rdi, %rbx
	callq	__ZNSt3__113__vector_baseIdNS_9allocatorIdEEE5clearEv
	movq	(%rbx), %r14
	movq	%rbx, %rdi
	callq	__ZNKSt3__113__vector_baseIdNS_9allocatorIdEEE8capacityEv
	movq	%r14, %rdi
	movq	%rax, %rsi
	callq	__ZNSt3__116allocator_traitsINS_9allocatorIdEEE10deallocateERS2_Pdm
LBB143_2:
	popq	%rbx
	popq	%r14
	popq	%rbp
	retq
	.cfi_endproc
                                        ## -- End function
	.p2align	4, 0x90                         ## -- Begin function _ZNSt3__117__compressed_pairIPdNS_9allocatorIdEEEC1IDnNS_18__default_init_tagEEEOT_OT0_
__ZNSt3__117__compressed_pairIPdNS_9allocatorIdEEEC1IDnNS_18__default_init_tagEEEOT_OT0_: ## @_ZNSt3__117__compressed_pairIPdNS_9allocatorIdEEEC1IDnNS_18__default_init_tagEEEOT_OT0_
	.cfi_startproc
## %bb.0:
	pushq	%rbp
	.cfi_def_cfa_offset 16
	.cfi_offset %rbp, -16
	movq	%rsp, %rbp
	.cfi_def_cfa_register %rbp
	callq	__ZNSt3__117__compressed_pairIPdNS_9allocatorIdEEEC2IDnNS_18__default_init_tagEEEOT_OT0_
	popq	%rbp
	retq
	.cfi_endproc
                                        ## -- End function
	.p2align	4, 0x90                         ## -- Begin function _ZNSt3__117__compressed_pairIPdNS_9allocatorIdEEEC2IDnNS_18__default_init_tagEEEOT_OT0_
__ZNSt3__117__compressed_pairIPdNS_9allocatorIdEEEC2IDnNS_18__default_init_tagEEEOT_OT0_: ## @_ZNSt3__117__compressed_pairIPdNS_9allocatorIdEEEC2IDnNS_18__default_init_tagEEEOT_OT0_
	.cfi_startproc
## %bb.0:
	pushq	%rbp
	.cfi_def_cfa_offset 16
	.cfi_offset %rbp, -16
	movq	%rsp, %rbp
	.cfi_def_cfa_register %rbp
	callq	__ZNSt3__122__compressed_pair_elemIPdLi0ELb0EEC2IDnvEEOT_
	popq	%rbp
	retq
	.cfi_endproc
                                        ## -- End function
	.p2align	4, 0x90                         ## -- Begin function _ZNSt3__122__compressed_pair_elemIPdLi0ELb0EEC2IDnvEEOT_
__ZNSt3__122__compressed_pair_elemIPdLi0ELb0EEC2IDnvEEOT_: ## @_ZNSt3__122__compressed_pair_elemIPdLi0ELb0EEC2IDnvEEOT_
	.cfi_startproc
## %bb.0:
	pushq	%rbp
	.cfi_def_cfa_offset 16
	.cfi_offset %rbp, -16
	movq	%rsp, %rbp
	.cfi_def_cfa_register %rbp
	movq	$0, (%rdi)
	popq	%rbp
	retq
	.cfi_endproc
                                        ## -- End function
	.globl	__ZNKSt3__16vectorIdNS_9allocatorIdEEE8max_sizeEv ## -- Begin function _ZNKSt3__16vectorIdNS_9allocatorIdEEE8max_sizeEv
	.weak_def_can_be_hidden	__ZNKSt3__16vectorIdNS_9allocatorIdEEE8max_sizeEv
	.p2align	4, 0x90
__ZNKSt3__16vectorIdNS_9allocatorIdEEE8max_sizeEv: ## @_ZNKSt3__16vectorIdNS_9allocatorIdEEE8max_sizeEv
	.cfi_startproc
## %bb.0:
	pushq	%rbp
	.cfi_def_cfa_offset 16
	.cfi_offset %rbp, -16
	movq	%rsp, %rbp
	.cfi_def_cfa_register %rbp
	subq	$16, %rsp
	movabsq	$2305843009213693951, %rax      ## imm = 0x1FFFFFFFFFFFFFFF
	movq	%rax, -16(%rbp)
	movabsq	$9223372036854775807, %rax      ## imm = 0x7FFFFFFFFFFFFFFF
	movq	%rax, -8(%rbp)
	leaq	-16(%rbp), %rdi
	leaq	-8(%rbp), %rsi
	callq	__ZNSt3__1L3minImEERKT_S3_S3_
	movq	(%rax), %rax
	addq	$16, %rsp
	popq	%rbp
	retq
	.cfi_endproc
                                        ## -- End function
	.p2align	4, 0x90                         ## -- Begin function _ZNSt3__116allocator_traitsINS_9allocatorIdEEE8allocateERS2_m
__ZNSt3__116allocator_traitsINS_9allocatorIdEEE8allocateERS2_m: ## @_ZNSt3__116allocator_traitsINS_9allocatorIdEEE8allocateERS2_m
	.cfi_startproc
## %bb.0:
	pushq	%rbp
	.cfi_def_cfa_offset 16
	.cfi_offset %rbp, -16
	movq	%rsp, %rbp
	.cfi_def_cfa_register %rbp
	callq	__ZNSt3__19allocatorIdE8allocateEm
	popq	%rbp
	retq
	.cfi_endproc
                                        ## -- End function
	.p2align	4, 0x90                         ## -- Begin function _ZNSt3__113__vector_baseIdNS_9allocatorIdEEE7__allocEv
__ZNSt3__113__vector_baseIdNS_9allocatorIdEEE7__allocEv: ## @_ZNSt3__113__vector_baseIdNS_9allocatorIdEEE7__allocEv
	.cfi_startproc
## %bb.0:
	pushq	%rbp
	.cfi_def_cfa_offset 16
	.cfi_offset %rbp, -16
	movq	%rsp, %rbp
	.cfi_def_cfa_register %rbp
	addq	$16, %rdi
	callq	__ZNSt3__117__compressed_pairIPdNS_9allocatorIdEEE6secondEv
	popq	%rbp
	retq
	.cfi_endproc
                                        ## -- End function
	.p2align	4, 0x90                         ## -- Begin function _ZNSt3__113__vector_baseIdNS_9allocatorIdEEE9__end_capEv
__ZNSt3__113__vector_baseIdNS_9allocatorIdEEE9__end_capEv: ## @_ZNSt3__113__vector_baseIdNS_9allocatorIdEEE9__end_capEv
	.cfi_startproc
## %bb.0:
	pushq	%rbp
	.cfi_def_cfa_offset 16
	.cfi_offset %rbp, -16
	movq	%rsp, %rbp
	.cfi_def_cfa_register %rbp
	addq	$16, %rdi
	callq	__ZNSt3__117__compressed_pairIPdNS_9allocatorIdEEE5firstEv
	popq	%rbp
	retq
	.cfi_endproc
                                        ## -- End function
	.p2align	4, 0x90                         ## -- Begin function _ZNSt3__19allocatorIdE8allocateEm
__ZNSt3__19allocatorIdE8allocateEm:     ## @_ZNSt3__19allocatorIdE8allocateEm
	.cfi_startproc
## %bb.0:
	pushq	%rbp
	.cfi_def_cfa_offset 16
	.cfi_offset %rbp, -16
	movq	%rsp, %rbp
	.cfi_def_cfa_register %rbp
	movq	%rdi, %rax
	shrq	$61, %rax
	jne	LBB151_2
## %bb.1:
	shlq	$3, %rdi
	callq	__ZNSt3__1L17__libcpp_allocateEmm
	popq	%rbp
	retq
LBB151_2:
	callq	__ZNSt3__1L20__throw_length_errorEPKc
	.cfi_endproc
                                        ## -- End function
	.p2align	4, 0x90                         ## -- Begin function _ZNSt3__117__compressed_pairIPdNS_9allocatorIdEEE6secondEv
__ZNSt3__117__compressed_pairIPdNS_9allocatorIdEEE6secondEv: ## @_ZNSt3__117__compressed_pairIPdNS_9allocatorIdEEE6secondEv
	.cfi_startproc
## %bb.0:
	pushq	%rbp
	.cfi_def_cfa_offset 16
	.cfi_offset %rbp, -16
	movq	%rsp, %rbp
	.cfi_def_cfa_register %rbp
	callq	__ZNSt3__122__compressed_pair_elemINS_9allocatorIdEELi1ELb1EE5__getEv
	popq	%rbp
	retq
	.cfi_endproc
                                        ## -- End function
	.p2align	4, 0x90                         ## -- Begin function _ZNSt3__122__compressed_pair_elemINS_9allocatorIdEELi1ELb1EE5__getEv
__ZNSt3__122__compressed_pair_elemINS_9allocatorIdEELi1ELb1EE5__getEv: ## @_ZNSt3__122__compressed_pair_elemINS_9allocatorIdEELi1ELb1EE5__getEv
	.cfi_startproc
## %bb.0:
	pushq	%rbp
	.cfi_def_cfa_offset 16
	.cfi_offset %rbp, -16
	movq	%rsp, %rbp
	.cfi_def_cfa_register %rbp
	movq	%rdi, %rax
	popq	%rbp
	retq
	.cfi_endproc
                                        ## -- End function
	.p2align	4, 0x90                         ## -- Begin function _ZNSt3__117__compressed_pairIPdNS_9allocatorIdEEE5firstEv
__ZNSt3__117__compressed_pairIPdNS_9allocatorIdEEE5firstEv: ## @_ZNSt3__117__compressed_pairIPdNS_9allocatorIdEEE5firstEv
	.cfi_startproc
## %bb.0:
	pushq	%rbp
	.cfi_def_cfa_offset 16
	.cfi_offset %rbp, -16
	movq	%rsp, %rbp
	.cfi_def_cfa_register %rbp
	callq	__ZNSt3__122__compressed_pair_elemIPdLi0ELb0EE5__getEv
	popq	%rbp
	retq
	.cfi_endproc
                                        ## -- End function
	.p2align	4, 0x90                         ## -- Begin function _ZNSt3__122__compressed_pair_elemIPdLi0ELb0EE5__getEv
__ZNSt3__122__compressed_pair_elemIPdLi0ELb0EE5__getEv: ## @_ZNSt3__122__compressed_pair_elemIPdLi0ELb0EE5__getEv
	.cfi_startproc
## %bb.0:
	pushq	%rbp
	.cfi_def_cfa_offset 16
	.cfi_offset %rbp, -16
	movq	%rsp, %rbp
	.cfi_def_cfa_register %rbp
	movq	%rdi, %rax
	popq	%rbp
	retq
	.cfi_endproc
                                        ## -- End function
	.p2align	4, 0x90                         ## -- Begin function _ZNKSt3__16vectorIdNS_9allocatorIdEEE8capacityEv
__ZNKSt3__16vectorIdNS_9allocatorIdEEE8capacityEv: ## @_ZNKSt3__16vectorIdNS_9allocatorIdEEE8capacityEv
	.cfi_startproc
## %bb.0:
	pushq	%rbp
	.cfi_def_cfa_offset 16
	.cfi_offset %rbp, -16
	movq	%rsp, %rbp
	.cfi_def_cfa_register %rbp
	callq	__ZNKSt3__113__vector_baseIdNS_9allocatorIdEEE8capacityEv
	popq	%rbp
	retq
	.cfi_endproc
                                        ## -- End function
	.p2align	4, 0x90                         ## -- Begin function _ZNKSt3__113__vector_baseIdNS_9allocatorIdEEE8capacityEv
__ZNKSt3__113__vector_baseIdNS_9allocatorIdEEE8capacityEv: ## @_ZNKSt3__113__vector_baseIdNS_9allocatorIdEEE8capacityEv
	.cfi_startproc
## %bb.0:
	pushq	%rbp
	.cfi_def_cfa_offset 16
	.cfi_offset %rbp, -16
	movq	%rsp, %rbp
	.cfi_def_cfa_register %rbp
	pushq	%rbx
	pushq	%rax
	.cfi_offset %rbx, -24
	movq	%rdi, %rbx
	callq	__ZNKSt3__113__vector_baseIdNS_9allocatorIdEEE9__end_capEv
	movq	(%rax), %rax
	subq	(%rbx), %rax
	sarq	$3, %rax
	addq	$8, %rsp
	popq	%rbx
	popq	%rbp
	retq
	.cfi_endproc
                                        ## -- End function
	.p2align	4, 0x90                         ## -- Begin function _ZNKSt3__113__vector_baseIdNS_9allocatorIdEEE9__end_capEv
__ZNKSt3__113__vector_baseIdNS_9allocatorIdEEE9__end_capEv: ## @_ZNKSt3__113__vector_baseIdNS_9allocatorIdEEE9__end_capEv
	.cfi_startproc
## %bb.0:
	pushq	%rbp
	.cfi_def_cfa_offset 16
	.cfi_offset %rbp, -16
	movq	%rsp, %rbp
	.cfi_def_cfa_register %rbp
	addq	$16, %rdi
	callq	__ZNKSt3__117__compressed_pairIPdNS_9allocatorIdEEE5firstEv
	popq	%rbp
	retq
	.cfi_endproc
                                        ## -- End function
	.p2align	4, 0x90                         ## -- Begin function _ZNKSt3__117__compressed_pairIPdNS_9allocatorIdEEE5firstEv
__ZNKSt3__117__compressed_pairIPdNS_9allocatorIdEEE5firstEv: ## @_ZNKSt3__117__compressed_pairIPdNS_9allocatorIdEEE5firstEv
	.cfi_startproc
## %bb.0:
	pushq	%rbp
	.cfi_def_cfa_offset 16
	.cfi_offset %rbp, -16
	movq	%rsp, %rbp
	.cfi_def_cfa_register %rbp
	callq	__ZNKSt3__122__compressed_pair_elemIPdLi0ELb0EE5__getEv
	popq	%rbp
	retq
	.cfi_endproc
                                        ## -- End function
	.p2align	4, 0x90                         ## -- Begin function _ZNKSt3__122__compressed_pair_elemIPdLi0ELb0EE5__getEv
__ZNKSt3__122__compressed_pair_elemIPdLi0ELb0EE5__getEv: ## @_ZNKSt3__122__compressed_pair_elemIPdLi0ELb0EE5__getEv
	.cfi_startproc
## %bb.0:
	pushq	%rbp
	.cfi_def_cfa_offset 16
	.cfi_offset %rbp, -16
	movq	%rsp, %rbp
	.cfi_def_cfa_register %rbp
	movq	%rdi, %rax
	popq	%rbp
	retq
	.cfi_endproc
                                        ## -- End function
	.globl	__ZNSt3__16vectorIdNS_9allocatorIdEEE21_ConstructTransactionC1ERS3_m ## -- Begin function _ZNSt3__16vectorIdNS_9allocatorIdEEE21_ConstructTransactionC1ERS3_m
	.weak_def_can_be_hidden	__ZNSt3__16vectorIdNS_9allocatorIdEEE21_ConstructTransactionC1ERS3_m
	.p2align	4, 0x90
__ZNSt3__16vectorIdNS_9allocatorIdEEE21_ConstructTransactionC1ERS3_m: ## @_ZNSt3__16vectorIdNS_9allocatorIdEEE21_ConstructTransactionC1ERS3_m
	.cfi_startproc
## %bb.0:
	pushq	%rbp
	.cfi_def_cfa_offset 16
	.cfi_offset %rbp, -16
	movq	%rsp, %rbp
	.cfi_def_cfa_register %rbp
	callq	__ZNSt3__16vectorIdNS_9allocatorIdEEE21_ConstructTransactionC2ERS3_m
	popq	%rbp
	retq
	.cfi_endproc
                                        ## -- End function
	.p2align	4, 0x90                         ## -- Begin function _ZNSt3__116allocator_traitsINS_9allocatorIdEEE9constructIdJRKdEvEEvRS2_PT_DpOT0_
__ZNSt3__116allocator_traitsINS_9allocatorIdEEE9constructIdJRKdEvEEvRS2_PT_DpOT0_: ## @_ZNSt3__116allocator_traitsINS_9allocatorIdEEE9constructIdJRKdEvEEvRS2_PT_DpOT0_
	.cfi_startproc
## %bb.0:
	pushq	%rbp
	.cfi_def_cfa_offset 16
	.cfi_offset %rbp, -16
	movq	%rsp, %rbp
	.cfi_def_cfa_register %rbp
	callq	__ZNSt3__19allocatorIdE9constructIdJRKdEEEvPT_DpOT0_
	popq	%rbp
	retq
	.cfi_endproc
                                        ## -- End function
	.globl	__ZNSt3__16vectorIdNS_9allocatorIdEEE21_ConstructTransactionD1Ev ## -- Begin function _ZNSt3__16vectorIdNS_9allocatorIdEEE21_ConstructTransactionD1Ev
	.weak_def_can_be_hidden	__ZNSt3__16vectorIdNS_9allocatorIdEEE21_ConstructTransactionD1Ev
	.p2align	4, 0x90
__ZNSt3__16vectorIdNS_9allocatorIdEEE21_ConstructTransactionD1Ev: ## @_ZNSt3__16vectorIdNS_9allocatorIdEEE21_ConstructTransactionD1Ev
	.cfi_startproc
## %bb.0:
	pushq	%rbp
	.cfi_def_cfa_offset 16
	.cfi_offset %rbp, -16
	movq	%rsp, %rbp
	.cfi_def_cfa_register %rbp
	callq	__ZNSt3__16vectorIdNS_9allocatorIdEEE21_ConstructTransactionD2Ev
	popq	%rbp
	retq
	.cfi_endproc
                                        ## -- End function
	.globl	__ZNSt3__16vectorIdNS_9allocatorIdEEE21_ConstructTransactionC2ERS3_m ## -- Begin function _ZNSt3__16vectorIdNS_9allocatorIdEEE21_ConstructTransactionC2ERS3_m
	.weak_def_can_be_hidden	__ZNSt3__16vectorIdNS_9allocatorIdEEE21_ConstructTransactionC2ERS3_m
	.p2align	4, 0x90
__ZNSt3__16vectorIdNS_9allocatorIdEEE21_ConstructTransactionC2ERS3_m: ## @_ZNSt3__16vectorIdNS_9allocatorIdEEE21_ConstructTransactionC2ERS3_m
	.cfi_startproc
## %bb.0:
	pushq	%rbp
	.cfi_def_cfa_offset 16
	.cfi_offset %rbp, -16
	movq	%rsp, %rbp
	.cfi_def_cfa_register %rbp
	movq	%rsi, (%rdi)
	movq	8(%rsi), %rax
	movq	%rax, 8(%rdi)
	shlq	$3, %rdx
	addq	8(%rsi), %rdx
	movq	%rdx, 16(%rdi)
	popq	%rbp
	retq
	.cfi_endproc
                                        ## -- End function
	.p2align	4, 0x90                         ## -- Begin function _ZNSt3__19allocatorIdE9constructIdJRKdEEEvPT_DpOT0_
__ZNSt3__19allocatorIdE9constructIdJRKdEEEvPT_DpOT0_: ## @_ZNSt3__19allocatorIdE9constructIdJRKdEEEvPT_DpOT0_
	.cfi_startproc
## %bb.0:
	pushq	%rbp
	.cfi_def_cfa_offset 16
	.cfi_offset %rbp, -16
	movq	%rsp, %rbp
	.cfi_def_cfa_register %rbp
	movq	(%rsi), %rax
	movq	%rax, (%rdi)
	popq	%rbp
	retq
	.cfi_endproc
                                        ## -- End function
	.globl	__ZNSt3__16vectorIdNS_9allocatorIdEEE21_ConstructTransactionD2Ev ## -- Begin function _ZNSt3__16vectorIdNS_9allocatorIdEEE21_ConstructTransactionD2Ev
	.weak_def_can_be_hidden	__ZNSt3__16vectorIdNS_9allocatorIdEEE21_ConstructTransactionD2Ev
	.p2align	4, 0x90
__ZNSt3__16vectorIdNS_9allocatorIdEEE21_ConstructTransactionD2Ev: ## @_ZNSt3__16vectorIdNS_9allocatorIdEEE21_ConstructTransactionD2Ev
	.cfi_startproc
## %bb.0:
	pushq	%rbp
	.cfi_def_cfa_offset 16
	.cfi_offset %rbp, -16
	movq	%rsp, %rbp
	.cfi_def_cfa_register %rbp
	movq	(%rdi), %rax
	movq	8(%rdi), %rcx
	movq	%rcx, 8(%rax)
	popq	%rbp
	retq
	.cfi_endproc
                                        ## -- End function
	.p2align	4, 0x90                         ## -- Begin function _ZNSt3__113__vector_baseIdNS_9allocatorIdEEE5clearEv
__ZNSt3__113__vector_baseIdNS_9allocatorIdEEE5clearEv: ## @_ZNSt3__113__vector_baseIdNS_9allocatorIdEEE5clearEv
	.cfi_startproc
## %bb.0:
	pushq	%rbp
	.cfi_def_cfa_offset 16
	.cfi_offset %rbp, -16
	movq	%rsp, %rbp
	.cfi_def_cfa_register %rbp
	movq	(%rdi), %rsi
	callq	__ZNSt3__113__vector_baseIdNS_9allocatorIdEEE17__destruct_at_endEPd
	popq	%rbp
	retq
	.cfi_endproc
                                        ## -- End function
	.p2align	4, 0x90                         ## -- Begin function _ZNSt3__116allocator_traitsINS_9allocatorIdEEE10deallocateERS2_Pdm
__ZNSt3__116allocator_traitsINS_9allocatorIdEEE10deallocateERS2_Pdm: ## @_ZNSt3__116allocator_traitsINS_9allocatorIdEEE10deallocateERS2_Pdm
	.cfi_startproc
## %bb.0:
	pushq	%rbp
	.cfi_def_cfa_offset 16
	.cfi_offset %rbp, -16
	movq	%rsp, %rbp
	.cfi_def_cfa_register %rbp
	callq	__ZNSt3__19allocatorIdE10deallocateEPdm
	popq	%rbp
	retq
	.cfi_endproc
                                        ## -- End function
	.p2align	4, 0x90                         ## -- Begin function _ZNSt3__113__vector_baseIdNS_9allocatorIdEEE17__destruct_at_endEPd
__ZNSt3__113__vector_baseIdNS_9allocatorIdEEE17__destruct_at_endEPd: ## @_ZNSt3__113__vector_baseIdNS_9allocatorIdEEE17__destruct_at_endEPd
	.cfi_startproc
## %bb.0:
	pushq	%rbp
	.cfi_def_cfa_offset 16
	.cfi_offset %rbp, -16
	movq	%rsp, %rbp
	.cfi_def_cfa_register %rbp
	movq	%rsi, 8(%rdi)
	popq	%rbp
	retq
	.cfi_endproc
                                        ## -- End function
	.p2align	4, 0x90                         ## -- Begin function _ZNSt3__19allocatorIdE10deallocateEPdm
__ZNSt3__19allocatorIdE10deallocateEPdm: ## @_ZNSt3__19allocatorIdE10deallocateEPdm
	.cfi_startproc
## %bb.0:
	pushq	%rbp
	.cfi_def_cfa_offset 16
	.cfi_offset %rbp, -16
	movq	%rsp, %rbp
	.cfi_def_cfa_register %rbp
	callq	__ZNSt3__1L19__libcpp_deallocateEPvmm
	popq	%rbp
	retq
	.cfi_endproc
                                        ## -- End function
	.globl	__ZNSt3__16vectorINS0_IdNS_9allocatorIdEEEENS1_IS3_EEEC2EmRKS3_ ## -- Begin function _ZNSt3__16vectorINS0_IdNS_9allocatorIdEEEENS1_IS3_EEEC2EmRKS3_
	.weak_def_can_be_hidden	__ZNSt3__16vectorINS0_IdNS_9allocatorIdEEEENS1_IS3_EEEC2EmRKS3_
	.p2align	4, 0x90
__ZNSt3__16vectorINS0_IdNS_9allocatorIdEEEENS1_IS3_EEEC2EmRKS3_: ## @_ZNSt3__16vectorINS0_IdNS_9allocatorIdEEEENS1_IS3_EEEC2EmRKS3_
Lfunc_begin11:
	.cfi_startproc
	.cfi_personality 155, ___gxx_personality_v0
	.cfi_lsda 16, Lexception11
## %bb.0:
	pushq	%rbp
	.cfi_def_cfa_offset 16
	.cfi_offset %rbp, -16
	movq	%rsp, %rbp
	.cfi_def_cfa_register %rbp
	pushq	%r15
	pushq	%r14
	pushq	%rbx
	pushq	%rax
	.cfi_offset %rbx, -40
	.cfi_offset %r14, -32
	.cfi_offset %r15, -24
	movq	%rdx, %r14
	movq	%rsi, %rbx
	movq	%rdi, %r15
	callq	__ZNSt3__113__vector_baseINS_6vectorIdNS_9allocatorIdEEEENS2_IS4_EEEC2Ev
	testq	%rbx, %rbx
	je	LBB171_3
## %bb.1:
Ltmp162:
	movq	%r15, %rdi
	movq	%rbx, %rsi
	callq	__ZNSt3__16vectorINS0_IdNS_9allocatorIdEEEENS1_IS3_EEE11__vallocateEm
Ltmp163:
## %bb.2:
Ltmp164:
	movq	%r15, %rdi
	movq	%rbx, %rsi
	movq	%r14, %rdx
	callq	__ZNSt3__16vectorINS0_IdNS_9allocatorIdEEEENS1_IS3_EEE18__construct_at_endEmRKS3_
Ltmp165:
LBB171_3:
	addq	$8, %rsp
	popq	%rbx
	popq	%r14
	popq	%r15
	popq	%rbp
	retq
LBB171_4:
Ltmp166:
	movq	%rax, %rbx
	movq	%r15, %rdi
	callq	__ZNSt3__113__vector_baseINS_6vectorIdNS_9allocatorIdEEEENS2_IS4_EEED2Ev
	movq	%rbx, %rdi
	callq	__Unwind_Resume
	ud2
Lfunc_end11:
	.cfi_endproc
	.section	__TEXT,__gcc_except_tab
	.p2align	2
GCC_except_table171:
Lexception11:
	.byte	255                             ## @LPStart Encoding = omit
	.byte	255                             ## @TType Encoding = omit
	.byte	1                               ## Call site Encoding = uleb128
	.uleb128 Lcst_end11-Lcst_begin11
Lcst_begin11:
	.uleb128 Ltmp162-Lfunc_begin11          ## >> Call Site 1 <<
	.uleb128 Ltmp165-Ltmp162                ##   Call between Ltmp162 and Ltmp165
	.uleb128 Ltmp166-Lfunc_begin11          ##     jumps to Ltmp166
	.byte	0                               ##   On action: cleanup
	.uleb128 Ltmp165-Lfunc_begin11          ## >> Call Site 2 <<
	.uleb128 Lfunc_end11-Ltmp165            ##   Call between Ltmp165 and Lfunc_end11
	.byte	0                               ##     has no landing pad
	.byte	0                               ##   On action: cleanup
Lcst_end11:
	.p2align	2
                                        ## -- End function
	.section	__TEXT,__text,regular,pure_instructions
	.p2align	4, 0x90                         ## -- Begin function _ZNSt3__113__vector_baseINS_6vectorIdNS_9allocatorIdEEEENS2_IS4_EEEC2Ev
__ZNSt3__113__vector_baseINS_6vectorIdNS_9allocatorIdEEEENS2_IS4_EEEC2Ev: ## @_ZNSt3__113__vector_baseINS_6vectorIdNS_9allocatorIdEEEENS2_IS4_EEEC2Ev
	.cfi_startproc
## %bb.0:
	pushq	%rbp
	.cfi_def_cfa_offset 16
	.cfi_offset %rbp, -16
	movq	%rsp, %rbp
	.cfi_def_cfa_register %rbp
	leaq	16(%rdi), %rax
	movq	$0, 8(%rdi)
	movq	$0, (%rdi)
	movq	%rax, %rdi
	callq	__ZNSt3__117__compressed_pairIPNS_6vectorIdNS_9allocatorIdEEEENS2_IS4_EEEC1IDnNS_18__default_init_tagEEEOT_OT0_
	popq	%rbp
	retq
	.cfi_endproc
                                        ## -- End function
	.globl	__ZNSt3__16vectorINS0_IdNS_9allocatorIdEEEENS1_IS3_EEE11__vallocateEm ## -- Begin function _ZNSt3__16vectorINS0_IdNS_9allocatorIdEEEENS1_IS3_EEE11__vallocateEm
	.weak_def_can_be_hidden	__ZNSt3__16vectorINS0_IdNS_9allocatorIdEEEENS1_IS3_EEE11__vallocateEm
	.p2align	4, 0x90
__ZNSt3__16vectorINS0_IdNS_9allocatorIdEEEENS1_IS3_EEE11__vallocateEm: ## @_ZNSt3__16vectorINS0_IdNS_9allocatorIdEEEENS1_IS3_EEE11__vallocateEm
	.cfi_startproc
## %bb.0:
	pushq	%rbp
	.cfi_def_cfa_offset 16
	.cfi_offset %rbp, -16
	movq	%rsp, %rbp
	.cfi_def_cfa_register %rbp
	pushq	%r14
	pushq	%rbx
	.cfi_offset %rbx, -32
	.cfi_offset %r14, -24
	movq	%rsi, %r14
	movq	%rdi, %rbx
	callq	__ZNKSt3__16vectorINS0_IdNS_9allocatorIdEEEENS1_IS3_EEE8max_sizeEv
	cmpq	%r14, %rax
	jb	LBB173_2
## %bb.1:
	movq	%r14, %rdi
	callq	__ZNSt3__116allocator_traitsINS_9allocatorINS_6vectorIdNS1_IdEEEEEEE8allocateERS5_m
	movq	%rax, 8(%rbx)
	movq	%rax, (%rbx)
	leaq	(%r14,%r14,2), %rcx
	leaq	(%rax,%rcx,8), %r14
	movq	%rbx, %rdi
	callq	__ZNSt3__113__vector_baseINS_6vectorIdNS_9allocatorIdEEEENS2_IS4_EEE9__end_capEv
	movq	%r14, (%rax)
	popq	%rbx
	popq	%r14
	popq	%rbp
	retq
LBB173_2:
	movq	%rbx, %rdi
	callq	__ZNKSt3__120__vector_base_commonILb1EE20__throw_length_errorEv
	.cfi_endproc
                                        ## -- End function
	.p2align	4, 0x90                         ## -- Begin function _ZNSt3__16vectorINS0_IdNS_9allocatorIdEEEENS1_IS3_EEE18__construct_at_endEmRKS3_
__ZNSt3__16vectorINS0_IdNS_9allocatorIdEEEENS1_IS3_EEE18__construct_at_endEmRKS3_: ## @_ZNSt3__16vectorINS0_IdNS_9allocatorIdEEEENS1_IS3_EEE18__construct_at_endEmRKS3_
Lfunc_begin12:
	.cfi_startproc
	.cfi_personality 155, ___gxx_personality_v0
	.cfi_lsda 16, Lexception12
## %bb.0:
	pushq	%rbp
	.cfi_def_cfa_offset 16
	.cfi_offset %rbp, -16
	movq	%rsp, %rbp
	.cfi_def_cfa_register %rbp
	pushq	%r15
	pushq	%r14
	pushq	%rbx
	subq	$24, %rsp
	.cfi_offset %rbx, -40
	.cfi_offset %r14, -32
	.cfi_offset %r15, -24
	movq	%rdx, %r14
	movq	%rsi, %rdx
	movq	%rdi, %rsi
	leaq	-48(%rbp), %rdi
	callq	__ZNSt3__16vectorINS0_IdNS_9allocatorIdEEEENS1_IS3_EEE21_ConstructTransactionC1ERS5_m
	movq	-40(%rbp), %rbx
	movq	-32(%rbp), %r15
	cmpq	%r15, %rbx
	je	LBB174_3
	.p2align	4, 0x90
LBB174_1:                               ## =>This Inner Loop Header: Depth=1
Ltmp167:
	movq	%rbx, %rdi
	movq	%r14, %rsi
	callq	__ZNSt3__116allocator_traitsINS_9allocatorINS_6vectorIdNS1_IdEEEEEEE9constructIS4_JRKS4_EvEEvRS5_PT_DpOT0_
Ltmp168:
## %bb.2:                               ##   in Loop: Header=BB174_1 Depth=1
	addq	$24, %rbx
	movq	%rbx, -40(%rbp)
	cmpq	%rbx, %r15
	jne	LBB174_1
LBB174_3:
	leaq	-48(%rbp), %rdi
	callq	__ZNSt3__16vectorINS0_IdNS_9allocatorIdEEEENS1_IS3_EEE21_ConstructTransactionD1Ev
	addq	$24, %rsp
	popq	%rbx
	popq	%r14
	popq	%r15
	popq	%rbp
	retq
LBB174_4:
Ltmp169:
	movq	%rax, %rbx
	leaq	-48(%rbp), %rdi
	callq	__ZNSt3__16vectorINS0_IdNS_9allocatorIdEEEENS1_IS3_EEE21_ConstructTransactionD1Ev
	movq	%rbx, %rdi
	callq	__Unwind_Resume
	ud2
Lfunc_end12:
	.cfi_endproc
	.section	__TEXT,__gcc_except_tab
	.p2align	2
GCC_except_table174:
Lexception12:
	.byte	255                             ## @LPStart Encoding = omit
	.byte	255                             ## @TType Encoding = omit
	.byte	1                               ## Call site Encoding = uleb128
	.uleb128 Lcst_end12-Lcst_begin12
Lcst_begin12:
	.uleb128 Lfunc_begin12-Lfunc_begin12    ## >> Call Site 1 <<
	.uleb128 Ltmp167-Lfunc_begin12          ##   Call between Lfunc_begin12 and Ltmp167
	.byte	0                               ##     has no landing pad
	.byte	0                               ##   On action: cleanup
	.uleb128 Ltmp167-Lfunc_begin12          ## >> Call Site 2 <<
	.uleb128 Ltmp168-Ltmp167                ##   Call between Ltmp167 and Ltmp168
	.uleb128 Ltmp169-Lfunc_begin12          ##     jumps to Ltmp169
	.byte	0                               ##   On action: cleanup
	.uleb128 Ltmp168-Lfunc_begin12          ## >> Call Site 3 <<
	.uleb128 Lfunc_end12-Ltmp168            ##   Call between Ltmp168 and Lfunc_end12
	.byte	0                               ##     has no landing pad
	.byte	0                               ##   On action: cleanup
Lcst_end12:
	.p2align	2
                                        ## -- End function
	.section	__TEXT,__text,regular,pure_instructions
	.globl	__ZNSt3__113__vector_baseINS_6vectorIdNS_9allocatorIdEEEENS2_IS4_EEED2Ev ## -- Begin function _ZNSt3__113__vector_baseINS_6vectorIdNS_9allocatorIdEEEENS2_IS4_EEED2Ev
	.weak_def_can_be_hidden	__ZNSt3__113__vector_baseINS_6vectorIdNS_9allocatorIdEEEENS2_IS4_EEED2Ev
	.p2align	4, 0x90
__ZNSt3__113__vector_baseINS_6vectorIdNS_9allocatorIdEEEENS2_IS4_EEED2Ev: ## @_ZNSt3__113__vector_baseINS_6vectorIdNS_9allocatorIdEEEENS2_IS4_EEED2Ev
	.cfi_startproc
## %bb.0:
	pushq	%rbp
	.cfi_def_cfa_offset 16
	.cfi_offset %rbp, -16
	movq	%rsp, %rbp
	.cfi_def_cfa_register %rbp
	pushq	%r14
	pushq	%rbx
	.cfi_offset %rbx, -32
	.cfi_offset %r14, -24
	cmpq	$0, (%rdi)
	je	LBB175_2
## %bb.1:
	movq	%rdi, %rbx
	callq	__ZNSt3__113__vector_baseINS_6vectorIdNS_9allocatorIdEEEENS2_IS4_EEE5clearEv
	movq	(%rbx), %r14
	movq	%rbx, %rdi
	callq	__ZNKSt3__113__vector_baseINS_6vectorIdNS_9allocatorIdEEEENS2_IS4_EEE8capacityEv
	movq	%r14, %rdi
	movq	%rax, %rsi
	callq	__ZNSt3__116allocator_traitsINS_9allocatorINS_6vectorIdNS1_IdEEEEEEE10deallocateERS5_PS4_m
LBB175_2:
	popq	%rbx
	popq	%r14
	popq	%rbp
	retq
	.cfi_endproc
                                        ## -- End function
	.p2align	4, 0x90                         ## -- Begin function _ZNSt3__117__compressed_pairIPNS_6vectorIdNS_9allocatorIdEEEENS2_IS4_EEEC1IDnNS_18__default_init_tagEEEOT_OT0_
__ZNSt3__117__compressed_pairIPNS_6vectorIdNS_9allocatorIdEEEENS2_IS4_EEEC1IDnNS_18__default_init_tagEEEOT_OT0_: ## @_ZNSt3__117__compressed_pairIPNS_6vectorIdNS_9allocatorIdEEEENS2_IS4_EEEC1IDnNS_18__default_init_tagEEEOT_OT0_
	.cfi_startproc
## %bb.0:
	pushq	%rbp
	.cfi_def_cfa_offset 16
	.cfi_offset %rbp, -16
	movq	%rsp, %rbp
	.cfi_def_cfa_register %rbp
	callq	__ZNSt3__117__compressed_pairIPNS_6vectorIdNS_9allocatorIdEEEENS2_IS4_EEEC2IDnNS_18__default_init_tagEEEOT_OT0_
	popq	%rbp
	retq
	.cfi_endproc
                                        ## -- End function
	.p2align	4, 0x90                         ## -- Begin function _ZNSt3__117__compressed_pairIPNS_6vectorIdNS_9allocatorIdEEEENS2_IS4_EEEC2IDnNS_18__default_init_tagEEEOT_OT0_
__ZNSt3__117__compressed_pairIPNS_6vectorIdNS_9allocatorIdEEEENS2_IS4_EEEC2IDnNS_18__default_init_tagEEEOT_OT0_: ## @_ZNSt3__117__compressed_pairIPNS_6vectorIdNS_9allocatorIdEEEENS2_IS4_EEEC2IDnNS_18__default_init_tagEEEOT_OT0_
	.cfi_startproc
## %bb.0:
	pushq	%rbp
	.cfi_def_cfa_offset 16
	.cfi_offset %rbp, -16
	movq	%rsp, %rbp
	.cfi_def_cfa_register %rbp
	callq	__ZNSt3__122__compressed_pair_elemIPNS_6vectorIdNS_9allocatorIdEEEELi0ELb0EEC2IDnvEEOT_
	popq	%rbp
	retq
	.cfi_endproc
                                        ## -- End function
	.p2align	4, 0x90                         ## -- Begin function _ZNSt3__122__compressed_pair_elemIPNS_6vectorIdNS_9allocatorIdEEEELi0ELb0EEC2IDnvEEOT_
__ZNSt3__122__compressed_pair_elemIPNS_6vectorIdNS_9allocatorIdEEEELi0ELb0EEC2IDnvEEOT_: ## @_ZNSt3__122__compressed_pair_elemIPNS_6vectorIdNS_9allocatorIdEEEELi0ELb0EEC2IDnvEEOT_
	.cfi_startproc
## %bb.0:
	pushq	%rbp
	.cfi_def_cfa_offset 16
	.cfi_offset %rbp, -16
	movq	%rsp, %rbp
	.cfi_def_cfa_register %rbp
	movq	$0, (%rdi)
	popq	%rbp
	retq
	.cfi_endproc
                                        ## -- End function
	.globl	__ZNKSt3__16vectorINS0_IdNS_9allocatorIdEEEENS1_IS3_EEE8max_sizeEv ## -- Begin function _ZNKSt3__16vectorINS0_IdNS_9allocatorIdEEEENS1_IS3_EEE8max_sizeEv
	.weak_def_can_be_hidden	__ZNKSt3__16vectorINS0_IdNS_9allocatorIdEEEENS1_IS3_EEE8max_sizeEv
	.p2align	4, 0x90
__ZNKSt3__16vectorINS0_IdNS_9allocatorIdEEEENS1_IS3_EEE8max_sizeEv: ## @_ZNKSt3__16vectorINS0_IdNS_9allocatorIdEEEENS1_IS3_EEE8max_sizeEv
	.cfi_startproc
## %bb.0:
	pushq	%rbp
	.cfi_def_cfa_offset 16
	.cfi_offset %rbp, -16
	movq	%rsp, %rbp
	.cfi_def_cfa_register %rbp
	subq	$16, %rsp
	movabsq	$768614336404564650, %rax       ## imm = 0xAAAAAAAAAAAAAAA
	movq	%rax, -16(%rbp)
	movabsq	$9223372036854775807, %rax      ## imm = 0x7FFFFFFFFFFFFFFF
	movq	%rax, -8(%rbp)
	leaq	-16(%rbp), %rdi
	leaq	-8(%rbp), %rsi
	callq	__ZNSt3__1L3minImEERKT_S3_S3_
	movq	(%rax), %rax
	addq	$16, %rsp
	popq	%rbp
	retq
	.cfi_endproc
                                        ## -- End function
	.p2align	4, 0x90                         ## -- Begin function _ZNSt3__116allocator_traitsINS_9allocatorINS_6vectorIdNS1_IdEEEEEEE8allocateERS5_m
__ZNSt3__116allocator_traitsINS_9allocatorINS_6vectorIdNS1_IdEEEEEEE8allocateERS5_m: ## @_ZNSt3__116allocator_traitsINS_9allocatorINS_6vectorIdNS1_IdEEEEEEE8allocateERS5_m
	.cfi_startproc
## %bb.0:
	pushq	%rbp
	.cfi_def_cfa_offset 16
	.cfi_offset %rbp, -16
	movq	%rsp, %rbp
	.cfi_def_cfa_register %rbp
	callq	__ZNSt3__19allocatorINS_6vectorIdNS0_IdEEEEE8allocateEm
	popq	%rbp
	retq
	.cfi_endproc
                                        ## -- End function
	.p2align	4, 0x90                         ## -- Begin function _ZNSt3__113__vector_baseINS_6vectorIdNS_9allocatorIdEEEENS2_IS4_EEE9__end_capEv
__ZNSt3__113__vector_baseINS_6vectorIdNS_9allocatorIdEEEENS2_IS4_EEE9__end_capEv: ## @_ZNSt3__113__vector_baseINS_6vectorIdNS_9allocatorIdEEEENS2_IS4_EEE9__end_capEv
	.cfi_startproc
## %bb.0:
	pushq	%rbp
	.cfi_def_cfa_offset 16
	.cfi_offset %rbp, -16
	movq	%rsp, %rbp
	.cfi_def_cfa_register %rbp
	addq	$16, %rdi
	callq	__ZNSt3__117__compressed_pairIPNS_6vectorIdNS_9allocatorIdEEEENS2_IS4_EEE5firstEv
	popq	%rbp
	retq
	.cfi_endproc
                                        ## -- End function
	.p2align	4, 0x90                         ## -- Begin function _ZNSt3__19allocatorINS_6vectorIdNS0_IdEEEEE8allocateEm
__ZNSt3__19allocatorINS_6vectorIdNS0_IdEEEEE8allocateEm: ## @_ZNSt3__19allocatorINS_6vectorIdNS0_IdEEEEE8allocateEm
	.cfi_startproc
## %bb.0:
	pushq	%rbp
	.cfi_def_cfa_offset 16
	.cfi_offset %rbp, -16
	movq	%rsp, %rbp
	.cfi_def_cfa_register %rbp
	movabsq	$768614336404564651, %rax       ## imm = 0xAAAAAAAAAAAAAAB
	cmpq	%rax, %rdi
	jae	LBB182_2
## %bb.1:
	shlq	$3, %rdi
	leaq	(%rdi,%rdi,2), %rdi
	callq	__ZNSt3__1L17__libcpp_allocateEmm
	popq	%rbp
	retq
LBB182_2:
	callq	__ZNSt3__1L20__throw_length_errorEPKc
	.cfi_endproc
                                        ## -- End function
	.p2align	4, 0x90                         ## -- Begin function _ZNSt3__117__compressed_pairIPNS_6vectorIdNS_9allocatorIdEEEENS2_IS4_EEE5firstEv
__ZNSt3__117__compressed_pairIPNS_6vectorIdNS_9allocatorIdEEEENS2_IS4_EEE5firstEv: ## @_ZNSt3__117__compressed_pairIPNS_6vectorIdNS_9allocatorIdEEEENS2_IS4_EEE5firstEv
	.cfi_startproc
## %bb.0:
	pushq	%rbp
	.cfi_def_cfa_offset 16
	.cfi_offset %rbp, -16
	movq	%rsp, %rbp
	.cfi_def_cfa_register %rbp
	callq	__ZNSt3__122__compressed_pair_elemIPNS_6vectorIdNS_9allocatorIdEEEELi0ELb0EE5__getEv
	popq	%rbp
	retq
	.cfi_endproc
                                        ## -- End function
	.p2align	4, 0x90                         ## -- Begin function _ZNSt3__122__compressed_pair_elemIPNS_6vectorIdNS_9allocatorIdEEEELi0ELb0EE5__getEv
__ZNSt3__122__compressed_pair_elemIPNS_6vectorIdNS_9allocatorIdEEEELi0ELb0EE5__getEv: ## @_ZNSt3__122__compressed_pair_elemIPNS_6vectorIdNS_9allocatorIdEEEELi0ELb0EE5__getEv
	.cfi_startproc
## %bb.0:
	pushq	%rbp
	.cfi_def_cfa_offset 16
	.cfi_offset %rbp, -16
	movq	%rsp, %rbp
	.cfi_def_cfa_register %rbp
	movq	%rdi, %rax
	popq	%rbp
	retq
	.cfi_endproc
                                        ## -- End function
	.p2align	4, 0x90                         ## -- Begin function _ZNKSt3__16vectorINS0_IdNS_9allocatorIdEEEENS1_IS3_EEE8capacityEv
__ZNKSt3__16vectorINS0_IdNS_9allocatorIdEEEENS1_IS3_EEE8capacityEv: ## @_ZNKSt3__16vectorINS0_IdNS_9allocatorIdEEEENS1_IS3_EEE8capacityEv
	.cfi_startproc
## %bb.0:
	pushq	%rbp
	.cfi_def_cfa_offset 16
	.cfi_offset %rbp, -16
	movq	%rsp, %rbp
	.cfi_def_cfa_register %rbp
	callq	__ZNKSt3__113__vector_baseINS_6vectorIdNS_9allocatorIdEEEENS2_IS4_EEE8capacityEv
	popq	%rbp
	retq
	.cfi_endproc
                                        ## -- End function
	.p2align	4, 0x90                         ## -- Begin function _ZNKSt3__113__vector_baseINS_6vectorIdNS_9allocatorIdEEEENS2_IS4_EEE8capacityEv
__ZNKSt3__113__vector_baseINS_6vectorIdNS_9allocatorIdEEEENS2_IS4_EEE8capacityEv: ## @_ZNKSt3__113__vector_baseINS_6vectorIdNS_9allocatorIdEEEENS2_IS4_EEE8capacityEv
	.cfi_startproc
## %bb.0:
	pushq	%rbp
	.cfi_def_cfa_offset 16
	.cfi_offset %rbp, -16
	movq	%rsp, %rbp
	.cfi_def_cfa_register %rbp
	pushq	%rbx
	pushq	%rax
	.cfi_offset %rbx, -24
	movq	%rdi, %rbx
	callq	__ZNKSt3__113__vector_baseINS_6vectorIdNS_9allocatorIdEEEENS2_IS4_EEE9__end_capEv
	movq	(%rax), %rcx
	subq	(%rbx), %rcx
	sarq	$3, %rcx
	movabsq	$-6148914691236517205, %rax     ## imm = 0xAAAAAAAAAAAAAAAB
	imulq	%rcx, %rax
	addq	$8, %rsp
	popq	%rbx
	popq	%rbp
	retq
	.cfi_endproc
                                        ## -- End function
	.p2align	4, 0x90                         ## -- Begin function _ZNKSt3__113__vector_baseINS_6vectorIdNS_9allocatorIdEEEENS2_IS4_EEE9__end_capEv
__ZNKSt3__113__vector_baseINS_6vectorIdNS_9allocatorIdEEEENS2_IS4_EEE9__end_capEv: ## @_ZNKSt3__113__vector_baseINS_6vectorIdNS_9allocatorIdEEEENS2_IS4_EEE9__end_capEv
	.cfi_startproc
## %bb.0:
	pushq	%rbp
	.cfi_def_cfa_offset 16
	.cfi_offset %rbp, -16
	movq	%rsp, %rbp
	.cfi_def_cfa_register %rbp
	addq	$16, %rdi
	callq	__ZNKSt3__117__compressed_pairIPNS_6vectorIdNS_9allocatorIdEEEENS2_IS4_EEE5firstEv
	popq	%rbp
	retq
	.cfi_endproc
                                        ## -- End function
	.p2align	4, 0x90                         ## -- Begin function _ZNKSt3__117__compressed_pairIPNS_6vectorIdNS_9allocatorIdEEEENS2_IS4_EEE5firstEv
__ZNKSt3__117__compressed_pairIPNS_6vectorIdNS_9allocatorIdEEEENS2_IS4_EEE5firstEv: ## @_ZNKSt3__117__compressed_pairIPNS_6vectorIdNS_9allocatorIdEEEENS2_IS4_EEE5firstEv
	.cfi_startproc
## %bb.0:
	pushq	%rbp
	.cfi_def_cfa_offset 16
	.cfi_offset %rbp, -16
	movq	%rsp, %rbp
	.cfi_def_cfa_register %rbp
	callq	__ZNKSt3__122__compressed_pair_elemIPNS_6vectorIdNS_9allocatorIdEEEELi0ELb0EE5__getEv
	popq	%rbp
	retq
	.cfi_endproc
                                        ## -- End function
	.p2align	4, 0x90                         ## -- Begin function _ZNKSt3__122__compressed_pair_elemIPNS_6vectorIdNS_9allocatorIdEEEELi0ELb0EE5__getEv
__ZNKSt3__122__compressed_pair_elemIPNS_6vectorIdNS_9allocatorIdEEEELi0ELb0EE5__getEv: ## @_ZNKSt3__122__compressed_pair_elemIPNS_6vectorIdNS_9allocatorIdEEEELi0ELb0EE5__getEv
	.cfi_startproc
## %bb.0:
	pushq	%rbp
	.cfi_def_cfa_offset 16
	.cfi_offset %rbp, -16
	movq	%rsp, %rbp
	.cfi_def_cfa_register %rbp
	movq	%rdi, %rax
	popq	%rbp
	retq
	.cfi_endproc
                                        ## -- End function
	.globl	__ZNSt3__16vectorINS0_IdNS_9allocatorIdEEEENS1_IS3_EEE21_ConstructTransactionC1ERS5_m ## -- Begin function _ZNSt3__16vectorINS0_IdNS_9allocatorIdEEEENS1_IS3_EEE21_ConstructTransactionC1ERS5_m
	.weak_def_can_be_hidden	__ZNSt3__16vectorINS0_IdNS_9allocatorIdEEEENS1_IS3_EEE21_ConstructTransactionC1ERS5_m
	.p2align	4, 0x90
__ZNSt3__16vectorINS0_IdNS_9allocatorIdEEEENS1_IS3_EEE21_ConstructTransactionC1ERS5_m: ## @_ZNSt3__16vectorINS0_IdNS_9allocatorIdEEEENS1_IS3_EEE21_ConstructTransactionC1ERS5_m
	.cfi_startproc
## %bb.0:
	pushq	%rbp
	.cfi_def_cfa_offset 16
	.cfi_offset %rbp, -16
	movq	%rsp, %rbp
	.cfi_def_cfa_register %rbp
	callq	__ZNSt3__16vectorINS0_IdNS_9allocatorIdEEEENS1_IS3_EEE21_ConstructTransactionC2ERS5_m
	popq	%rbp
	retq
	.cfi_endproc
                                        ## -- End function
	.p2align	4, 0x90                         ## -- Begin function _ZNSt3__116allocator_traitsINS_9allocatorINS_6vectorIdNS1_IdEEEEEEE9constructIS4_JRKS4_EvEEvRS5_PT_DpOT0_
__ZNSt3__116allocator_traitsINS_9allocatorINS_6vectorIdNS1_IdEEEEEEE9constructIS4_JRKS4_EvEEvRS5_PT_DpOT0_: ## @_ZNSt3__116allocator_traitsINS_9allocatorINS_6vectorIdNS1_IdEEEEEEE9constructIS4_JRKS4_EvEEvRS5_PT_DpOT0_
	.cfi_startproc
## %bb.0:
	pushq	%rbp
	.cfi_def_cfa_offset 16
	.cfi_offset %rbp, -16
	movq	%rsp, %rbp
	.cfi_def_cfa_register %rbp
	callq	__ZNSt3__19allocatorINS_6vectorIdNS0_IdEEEEE9constructIS3_JRKS3_EEEvPT_DpOT0_
	popq	%rbp
	retq
	.cfi_endproc
                                        ## -- End function
	.globl	__ZNSt3__16vectorINS0_IdNS_9allocatorIdEEEENS1_IS3_EEE21_ConstructTransactionD1Ev ## -- Begin function _ZNSt3__16vectorINS0_IdNS_9allocatorIdEEEENS1_IS3_EEE21_ConstructTransactionD1Ev
	.weak_def_can_be_hidden	__ZNSt3__16vectorINS0_IdNS_9allocatorIdEEEENS1_IS3_EEE21_ConstructTransactionD1Ev
	.p2align	4, 0x90
__ZNSt3__16vectorINS0_IdNS_9allocatorIdEEEENS1_IS3_EEE21_ConstructTransactionD1Ev: ## @_ZNSt3__16vectorINS0_IdNS_9allocatorIdEEEENS1_IS3_EEE21_ConstructTransactionD1Ev
	.cfi_startproc
## %bb.0:
	pushq	%rbp
	.cfi_def_cfa_offset 16
	.cfi_offset %rbp, -16
	movq	%rsp, %rbp
	.cfi_def_cfa_register %rbp
	callq	__ZNSt3__16vectorINS0_IdNS_9allocatorIdEEEENS1_IS3_EEE21_ConstructTransactionD2Ev
	popq	%rbp
	retq
	.cfi_endproc
                                        ## -- End function
	.globl	__ZNSt3__16vectorINS0_IdNS_9allocatorIdEEEENS1_IS3_EEE21_ConstructTransactionC2ERS5_m ## -- Begin function _ZNSt3__16vectorINS0_IdNS_9allocatorIdEEEENS1_IS3_EEE21_ConstructTransactionC2ERS5_m
	.weak_def_can_be_hidden	__ZNSt3__16vectorINS0_IdNS_9allocatorIdEEEENS1_IS3_EEE21_ConstructTransactionC2ERS5_m
	.p2align	4, 0x90
__ZNSt3__16vectorINS0_IdNS_9allocatorIdEEEENS1_IS3_EEE21_ConstructTransactionC2ERS5_m: ## @_ZNSt3__16vectorINS0_IdNS_9allocatorIdEEEENS1_IS3_EEE21_ConstructTransactionC2ERS5_m
	.cfi_startproc
## %bb.0:
	pushq	%rbp
	.cfi_def_cfa_offset 16
	.cfi_offset %rbp, -16
	movq	%rsp, %rbp
	.cfi_def_cfa_register %rbp
	movq	%rsi, (%rdi)
	movq	8(%rsi), %rax
	movq	%rax, 8(%rdi)
	leaq	(%rdx,%rdx,2), %rax
	shlq	$3, %rax
	addq	8(%rsi), %rax
	movq	%rax, 16(%rdi)
	popq	%rbp
	retq
	.cfi_endproc
                                        ## -- End function
	.p2align	4, 0x90                         ## -- Begin function _ZNSt3__19allocatorINS_6vectorIdNS0_IdEEEEE9constructIS3_JRKS3_EEEvPT_DpOT0_
__ZNSt3__19allocatorINS_6vectorIdNS0_IdEEEEE9constructIS3_JRKS3_EEEvPT_DpOT0_: ## @_ZNSt3__19allocatorINS_6vectorIdNS0_IdEEEEE9constructIS3_JRKS3_EEEvPT_DpOT0_
	.cfi_startproc
## %bb.0:
	pushq	%rbp
	.cfi_def_cfa_offset 16
	.cfi_offset %rbp, -16
	movq	%rsp, %rbp
	.cfi_def_cfa_register %rbp
	callq	__ZNSt3__16vectorIdNS_9allocatorIdEEEC1ERKS3_
	popq	%rbp
	retq
	.cfi_endproc
                                        ## -- End function
	.globl	__ZNSt3__16vectorINS0_IdNS_9allocatorIdEEEENS1_IS3_EEE21_ConstructTransactionD2Ev ## -- Begin function _ZNSt3__16vectorINS0_IdNS_9allocatorIdEEEENS1_IS3_EEE21_ConstructTransactionD2Ev
	.weak_def_can_be_hidden	__ZNSt3__16vectorINS0_IdNS_9allocatorIdEEEENS1_IS3_EEE21_ConstructTransactionD2Ev
	.p2align	4, 0x90
__ZNSt3__16vectorINS0_IdNS_9allocatorIdEEEENS1_IS3_EEE21_ConstructTransactionD2Ev: ## @_ZNSt3__16vectorINS0_IdNS_9allocatorIdEEEENS1_IS3_EEE21_ConstructTransactionD2Ev
	.cfi_startproc
## %bb.0:
	pushq	%rbp
	.cfi_def_cfa_offset 16
	.cfi_offset %rbp, -16
	movq	%rsp, %rbp
	.cfi_def_cfa_register %rbp
	movq	(%rdi), %rax
	movq	8(%rdi), %rcx
	movq	%rcx, 8(%rax)
	popq	%rbp
	retq
	.cfi_endproc
                                        ## -- End function
	.p2align	4, 0x90                         ## -- Begin function _ZNSt3__113__vector_baseINS_6vectorIdNS_9allocatorIdEEEENS2_IS4_EEE5clearEv
__ZNSt3__113__vector_baseINS_6vectorIdNS_9allocatorIdEEEENS2_IS4_EEE5clearEv: ## @_ZNSt3__113__vector_baseINS_6vectorIdNS_9allocatorIdEEEENS2_IS4_EEE5clearEv
	.cfi_startproc
## %bb.0:
	pushq	%rbp
	.cfi_def_cfa_offset 16
	.cfi_offset %rbp, -16
	movq	%rsp, %rbp
	.cfi_def_cfa_register %rbp
	movq	(%rdi), %rsi
	callq	__ZNSt3__113__vector_baseINS_6vectorIdNS_9allocatorIdEEEENS2_IS4_EEE17__destruct_at_endEPS4_
	popq	%rbp
	retq
	.cfi_endproc
                                        ## -- End function
	.p2align	4, 0x90                         ## -- Begin function _ZNSt3__116allocator_traitsINS_9allocatorINS_6vectorIdNS1_IdEEEEEEE10deallocateERS5_PS4_m
__ZNSt3__116allocator_traitsINS_9allocatorINS_6vectorIdNS1_IdEEEEEEE10deallocateERS5_PS4_m: ## @_ZNSt3__116allocator_traitsINS_9allocatorINS_6vectorIdNS1_IdEEEEEEE10deallocateERS5_PS4_m
	.cfi_startproc
## %bb.0:
	pushq	%rbp
	.cfi_def_cfa_offset 16
	.cfi_offset %rbp, -16
	movq	%rsp, %rbp
	.cfi_def_cfa_register %rbp
	callq	__ZNSt3__19allocatorINS_6vectorIdNS0_IdEEEEE10deallocateEPS3_m
	popq	%rbp
	retq
	.cfi_endproc
                                        ## -- End function
	.p2align	4, 0x90                         ## -- Begin function _ZNSt3__113__vector_baseINS_6vectorIdNS_9allocatorIdEEEENS2_IS4_EEE17__destruct_at_endEPS4_
__ZNSt3__113__vector_baseINS_6vectorIdNS_9allocatorIdEEEENS2_IS4_EEE17__destruct_at_endEPS4_: ## @_ZNSt3__113__vector_baseINS_6vectorIdNS_9allocatorIdEEEENS2_IS4_EEE17__destruct_at_endEPS4_
	.cfi_startproc
## %bb.0:
	pushq	%rbp
	.cfi_def_cfa_offset 16
	.cfi_offset %rbp, -16
	movq	%rsp, %rbp
	.cfi_def_cfa_register %rbp
	pushq	%r15
	pushq	%r14
	pushq	%rbx
	pushq	%rax
	.cfi_offset %rbx, -40
	.cfi_offset %r14, -32
	.cfi_offset %r15, -24
	movq	%rsi, %r15
	movq	%rdi, %r14
	movq	8(%rdi), %rbx
	cmpq	%rsi, %rbx
	je	LBB198_2
	.p2align	4, 0x90
LBB198_1:                               ## =>This Inner Loop Header: Depth=1
	addq	$-24, %rbx
	movq	%rbx, %rdi
	callq	__ZNSt3__116allocator_traitsINS_9allocatorINS_6vectorIdNS1_IdEEEEEEE7destroyIS4_vEEvRS5_PT_
	cmpq	%rbx, %r15
	jne	LBB198_1
LBB198_2:
	movq	%r15, 8(%r14)
	addq	$8, %rsp
	popq	%rbx
	popq	%r14
	popq	%r15
	popq	%rbp
	retq
	.cfi_endproc
                                        ## -- End function
	.p2align	4, 0x90                         ## -- Begin function _ZNSt3__116allocator_traitsINS_9allocatorINS_6vectorIdNS1_IdEEEEEEE7destroyIS4_vEEvRS5_PT_
__ZNSt3__116allocator_traitsINS_9allocatorINS_6vectorIdNS1_IdEEEEEEE7destroyIS4_vEEvRS5_PT_: ## @_ZNSt3__116allocator_traitsINS_9allocatorINS_6vectorIdNS1_IdEEEEEEE7destroyIS4_vEEvRS5_PT_
	.cfi_startproc
## %bb.0:
	pushq	%rbp
	.cfi_def_cfa_offset 16
	.cfi_offset %rbp, -16
	movq	%rsp, %rbp
	.cfi_def_cfa_register %rbp
	callq	__ZNSt3__19allocatorINS_6vectorIdNS0_IdEEEEE7destroyEPS3_
	popq	%rbp
	retq
	.cfi_endproc
                                        ## -- End function
	.p2align	4, 0x90                         ## -- Begin function _ZNSt3__19allocatorINS_6vectorIdNS0_IdEEEEE7destroyEPS3_
__ZNSt3__19allocatorINS_6vectorIdNS0_IdEEEEE7destroyEPS3_: ## @_ZNSt3__19allocatorINS_6vectorIdNS0_IdEEEEE7destroyEPS3_
	.cfi_startproc
## %bb.0:
	pushq	%rbp
	.cfi_def_cfa_offset 16
	.cfi_offset %rbp, -16
	movq	%rsp, %rbp
	.cfi_def_cfa_register %rbp
	callq	__ZNSt3__16vectorIdNS_9allocatorIdEEED1Ev
	popq	%rbp
	retq
	.cfi_endproc
                                        ## -- End function
	.p2align	4, 0x90                         ## -- Begin function _ZNSt3__19allocatorINS_6vectorIdNS0_IdEEEEE10deallocateEPS3_m
__ZNSt3__19allocatorINS_6vectorIdNS0_IdEEEEE10deallocateEPS3_m: ## @_ZNSt3__19allocatorINS_6vectorIdNS0_IdEEEEE10deallocateEPS3_m
	.cfi_startproc
## %bb.0:
	pushq	%rbp
	.cfi_def_cfa_offset 16
	.cfi_offset %rbp, -16
	movq	%rsp, %rbp
	.cfi_def_cfa_register %rbp
	callq	__ZNSt3__1L19__libcpp_deallocateEPvmm
	popq	%rbp
	retq
	.cfi_endproc
                                        ## -- End function
	.p2align	4, 0x90                         ## -- Begin function _ZNSt3__16vectorINS0_IdNS_9allocatorIdEEEENS1_IS3_EEED2Ev
__ZNSt3__16vectorINS0_IdNS_9allocatorIdEEEENS1_IS3_EEED2Ev: ## @_ZNSt3__16vectorINS0_IdNS_9allocatorIdEEEENS1_IS3_EEED2Ev
	.cfi_startproc
## %bb.0:
	pushq	%rbp
	.cfi_def_cfa_offset 16
	.cfi_offset %rbp, -16
	movq	%rsp, %rbp
	.cfi_def_cfa_register %rbp
	callq	__ZNSt3__113__vector_baseINS_6vectorIdNS_9allocatorIdEEEENS2_IS4_EEED2Ev
	popq	%rbp
	retq
	.cfi_endproc
                                        ## -- End function
	.p2align	4, 0x90                         ## -- Begin function _ZNKSt3__16vectorINS0_IdNS_9allocatorIdEEEENS1_IS3_EEE4sizeEv
__ZNKSt3__16vectorINS0_IdNS_9allocatorIdEEEENS1_IS3_EEE4sizeEv: ## @_ZNKSt3__16vectorINS0_IdNS_9allocatorIdEEEENS1_IS3_EEE4sizeEv
	.cfi_startproc
## %bb.0:
	pushq	%rbp
	.cfi_def_cfa_offset 16
	.cfi_offset %rbp, -16
	movq	%rsp, %rbp
	.cfi_def_cfa_register %rbp
	movq	8(%rdi), %rcx
	subq	(%rdi), %rcx
	sarq	$3, %rcx
	movabsq	$-6148914691236517205, %rax     ## imm = 0xAAAAAAAAAAAAAAAB
	imulq	%rcx, %rax
	popq	%rbp
	retq
	.cfi_endproc
                                        ## -- End function
	.globl	__ZN10VertexlistD2Ev            ## -- Begin function _ZN10VertexlistD2Ev
	.weak_def_can_be_hidden	__ZN10VertexlistD2Ev
	.p2align	4, 0x90
__ZN10VertexlistD2Ev:                   ## @_ZN10VertexlistD2Ev
	.cfi_startproc
## %bb.0:
	pushq	%rbp
	.cfi_def_cfa_offset 16
	.cfi_offset %rbp, -16
	movq	%rsp, %rbp
	.cfi_def_cfa_register %rbp
	pushq	%rbx
	pushq	%rax
	.cfi_offset %rbx, -24
	movq	%rdi, %rbx
	addq	$48, %rdi
	callq	__ZNSt3__16vectorIiNS_9allocatorIiEEED1Ev
	leaq	24(%rbx), %rdi
	callq	__ZNSt3__16vectorIiNS_9allocatorIiEEED1Ev
	movq	%rbx, %rdi
	callq	__ZNSt3__16vectorIiNS_9allocatorIiEEED1Ev
	addq	$8, %rsp
	popq	%rbx
	popq	%rbp
	retq
	.cfi_endproc
                                        ## -- End function
	.p2align	4, 0x90                         ## -- Begin function _ZNSt3__112basic_stringIcNS_11char_traitsIcEENS_9allocatorIcEEEC1IDnEEPKc
__ZNSt3__112basic_stringIcNS_11char_traitsIcEENS_9allocatorIcEEEC1IDnEEPKc: ## @_ZNSt3__112basic_stringIcNS_11char_traitsIcEENS_9allocatorIcEEEC1IDnEEPKc
	.cfi_startproc
## %bb.0:
	pushq	%rbp
	.cfi_def_cfa_offset 16
	.cfi_offset %rbp, -16
	movq	%rsp, %rbp
	.cfi_def_cfa_register %rbp
	callq	__ZNSt3__112basic_stringIcNS_11char_traitsIcEENS_9allocatorIcEEEC2IDnEEPKc
	popq	%rbp
	retq
	.cfi_endproc
                                        ## -- End function
	.p2align	4, 0x90                         ## -- Begin function _ZNSt3__112basic_stringIcNS_11char_traitsIcEENS_9allocatorIcEEEC2IDnEEPKc
__ZNSt3__112basic_stringIcNS_11char_traitsIcEENS_9allocatorIcEEEC2IDnEEPKc: ## @_ZNSt3__112basic_stringIcNS_11char_traitsIcEENS_9allocatorIcEEEC2IDnEEPKc
	.cfi_startproc
## %bb.0:
	pushq	%rbp
	.cfi_def_cfa_offset 16
	.cfi_offset %rbp, -16
	movq	%rsp, %rbp
	.cfi_def_cfa_register %rbp
	pushq	%r14
	pushq	%rbx
	.cfi_offset %rbx, -32
	.cfi_offset %r14, -24
	movq	%rdi, %rbx
	leaq	L_.str.14(%rip), %r14
	movq	%r14, %rdi
	callq	__ZNSt3__111char_traitsIcE6lengthEPKc
	movq	%rbx, %rdi
	movq	%r14, %rsi
	movq	%rax, %rdx
	callq	__ZNSt3__112basic_stringIcNS_11char_traitsIcEENS_9allocatorIcEEE6__initEPKcm
	popq	%rbx
	popq	%r14
	popq	%rbp
	retq
	.cfi_endproc
                                        ## -- End function
	.globl	__ZNSt3__111char_traitsIcE6lengthEPKc ## -- Begin function _ZNSt3__111char_traitsIcE6lengthEPKc
	.weak_def_can_be_hidden	__ZNSt3__111char_traitsIcE6lengthEPKc
	.p2align	4, 0x90
__ZNSt3__111char_traitsIcE6lengthEPKc:  ## @_ZNSt3__111char_traitsIcE6lengthEPKc
	.cfi_startproc
## %bb.0:
	pushq	%rbp
	.cfi_def_cfa_offset 16
	.cfi_offset %rbp, -16
	movq	%rsp, %rbp
	.cfi_def_cfa_register %rbp
	callq	_strlen
	popq	%rbp
	retq
	.cfi_endproc
                                        ## -- End function
	.p2align	4, 0x90                         ## -- Begin function _ZNSt3__112basic_stringIcNS_11char_traitsIcEENS_9allocatorIcEEE16__set_short_sizeEm
__ZNSt3__112basic_stringIcNS_11char_traitsIcEENS_9allocatorIcEEE16__set_short_sizeEm: ## @_ZNSt3__112basic_stringIcNS_11char_traitsIcEENS_9allocatorIcEEE16__set_short_sizeEm
	.cfi_startproc
## %bb.0:
	pushq	%rbp
	.cfi_def_cfa_offset 16
	.cfi_offset %rbp, -16
	movq	%rsp, %rbp
	.cfi_def_cfa_register %rbp
	pushq	%rbx
	pushq	%rax
	.cfi_offset %rbx, -24
	movq	%rsi, %rbx
	addb	%bl, %bl
	callq	__ZNSt3__117__compressed_pairINS_12basic_stringIcNS_11char_traitsIcEENS_9allocatorIcEEE5__repES5_E5firstEv
	movb	%bl, (%rax)
	addq	$8, %rsp
	popq	%rbx
	popq	%rbp
	retq
	.cfi_endproc
                                        ## -- End function
	.p2align	4, 0x90                         ## -- Begin function _ZNSt3__112basic_stringIcNS_11char_traitsIcEENS_9allocatorIcEEE19__get_short_pointerEv
__ZNSt3__112basic_stringIcNS_11char_traitsIcEENS_9allocatorIcEEE19__get_short_pointerEv: ## @_ZNSt3__112basic_stringIcNS_11char_traitsIcEENS_9allocatorIcEEE19__get_short_pointerEv
	.cfi_startproc
## %bb.0:
	pushq	%rbp
	.cfi_def_cfa_offset 16
	.cfi_offset %rbp, -16
	movq	%rsp, %rbp
	.cfi_def_cfa_register %rbp
	callq	__ZNSt3__117__compressed_pairINS_12basic_stringIcNS_11char_traitsIcEENS_9allocatorIcEEE5__repES5_E5firstEv
	incq	%rax
	popq	%rbp
	retq
	.cfi_endproc
                                        ## -- End function
	.p2align	4, 0x90                         ## -- Begin function _ZNSt3__112basic_stringIcNS_11char_traitsIcEENS_9allocatorIcEEE11__recommendEm
__ZNSt3__112basic_stringIcNS_11char_traitsIcEENS_9allocatorIcEEE11__recommendEm: ## @_ZNSt3__112basic_stringIcNS_11char_traitsIcEENS_9allocatorIcEEE11__recommendEm
	.cfi_startproc
## %bb.0:
	pushq	%rbp
	.cfi_def_cfa_offset 16
	.cfi_offset %rbp, -16
	movq	%rsp, %rbp
	.cfi_def_cfa_register %rbp
	incq	%rdi
	callq	__ZNSt3__112basic_stringIcNS_11char_traitsIcEENS_9allocatorIcEEE10__align_itILm16EEEmm
	leaq	-1(%rax), %rcx
	cmpq	$23, %rcx
	cmovneq	%rcx, %rax
	popq	%rbp
	retq
	.cfi_endproc
                                        ## -- End function
	.p2align	4, 0x90                         ## -- Begin function _ZNSt3__116allocator_traitsINS_9allocatorIcEEE8allocateERS2_m
